L251 LINKER/LOCATER V4.66.93.0                                                          07/20/2022  18:50:16  PAGE 1


L251 LINKER/LOCATER V4.66.93.0, INVOKED BY:
C:\KEIL_V5\C251\BIN\L251.EXE .\Objects\EEPROM.obj, .\Objects\TFT480x320-V2.obj, .\Objects\OSCOPE-V2-8bit.obj TO .\Object
>> s\OSCOPE PRINT (.\Listings\OSCOPE.map) CASE CLASSES (EDATA (0X0-0XFFF), HDATA (0X0-0XFFF))


CPU MODE:     251 SOURCE MODE
INTR FRAME:   4 BYTES SAVED ON INTERRUPT
MEMORY MODEL: XSMALL WITH FLOATING POINT ARITHMETIC


INPUT MODULES INCLUDED:
  .\Objects\EEPROM.obj (EEPROM)
         COMMENT TYPE 0: C251 V5.60.0
  .\Objects\TFT480x320-V2.obj (TFT480x320-V2)
         COMMENT TYPE 0: C251 V5.60.0
  .\Objects\OSCOPE-V2-8bit.obj (OSCOPE-V2-8bit)
         COMMENT TYPE 0: C251 V5.60.0
  C:\KEIL_V5\C251\LIB\C2SFPXS.LIB (?C?FPMUL)
         COMMENT TYPE 0: A251 V4.69.6.0
  C:\KEIL_V5\C251\LIB\C2SFPXS.LIB (?C?FPDIV)
         COMMENT TYPE 0: A251 V4.69.6.0
  C:\KEIL_V5\C251\LIB\C2SFPXS.LIB (?C?FCAST)
         COMMENT TYPE 0: A251 V4.69.6.0
  C:\KEIL_V5\C251\LIB\C2SFPXS.LIB (?C?CASTF)
         COMMENT TYPE 0: A251 V4.69.6.0
  C:\KEIL_V5\C251\LIB\C2SFPXS.LIB (?C?FPGETOPN)
         COMMENT TYPE 0: A251 V4.69.6.0
  C:\KEIL_V5\C251\LIB\C2SXS.LIB (?C_START)
         COMMENT TYPE 0: A251 V4.69.6.0
  C:\KEIL_V5\C251\LIB\C2SXS.LIB (?C?INITEDATA)
         COMMENT TYPE 0: A251 V4.69.6.0
  C:\KEIL_V5\C251\LIB\C2SXS.LIB (?C?ULDIV)
         COMMENT TYPE 0: A251 V4.69.6.0
  C:\KEIL_V5\C251\LIB\C2SXS.LIB (?C?SLDIV)
         COMMENT TYPE 0: A251 V4.69.6.0
  C:\KEIL_V5\C251\LIB\C2SXS.LIB (?C?INITEDATA_END)
         COMMENT TYPE 0: A251 V4.69.6.0


ACTIVE MEMORY CLASSES OF MODULE:  .\Objects\OSCOPE (EEPROM)

BASE        START       END         USED      MEMORY CLASS
==========================================================
000000H     000000H     000FFFH     0004A6H   EDATA
000000H     000000H     000FFFH               HDATA
FF0000H     FF0000H     FFFFFFH     0024E5H   CODE
010000H     010000H     01FFFFH     0011A8H   XDATA
000000H     FF0000H     FFFFFFH     0012AAH   HCONST
000020H.0   000020H.0   00002FH.7   000001H.4 BIT
000000H     000000H     00007FH     000008H   DATA


MEMORY MAP OF MODULE:  .\Objects\OSCOPE (EEPROM)


START     STOP      LENGTH    ALIGN  RELOC    MEMORY CLASS   SEGMENT NAME
=========================================================================
000000H   000007H   000008H   ---    AT..     DATA           "REG BANK 0"
000008H   000013H   00000CH   BYTE   UNIT     EDATA          _EDATA_GROUP_
000014H   000017H   000004H   BYTE   UNIT     EDATA          ?ED?TFT480X320_V2
000018H.0 00001FH.7 000008H.0 ---    ---      **GAP**
000020H.0 000021H.3 000001H.4 BIT    UNIT     BIT            ?BI?OSCOPE_V2_8BIT
000021H.4 000021H   000000H.4 ---    ---      **GAP**
000022H   0003B7H   000396H   BYTE   UNIT     EDATA          ?ED?OSCOPE_V2_8BIT
0003B8H   0004B7H   000100H   BYTE   UNIT     EDATA          ?STACK
0004B8H   00FFFFH   00FB48H   ---    ---      **GAP**
L251 LINKER/LOCATER V4.66.93.0                                                        07/20/2022  18:50:16  PAGE 2


010000H   010FA7H   000FA8H   BYTE   INSEG    XDATA          ?XD?OSCOPE_V2_8BIT
010FA8H   0111A7H   000200H   BYTE   INSEG    XDATA          ?XD?TFT480X320_V2
0111A8H   FEFFFFH   FDEE58H   ---    ---      **GAP**
FF0000H   FF0002H   000003H   ---    OFFS..   CODE           ?CO?start251?4
FF0003H   FF000AH   000008H   ---    ---      **GAP**
FF000BH   FF000DH   000003H   ---    OFFS..   CODE           ?PR?IV?1
FF000EH   FF0012H   000005H   ---    ---      **GAP**
FF0013H   FF0015H   000003H   ---    OFFS..   CODE           ?PR?IV?2
FF0016H   FF001AH   000005H   ---    ---      **GAP**
FF001BH   FF001DH   000003H   ---    OFFS..   CODE           ?PR?IV?3
FF001EH   FF0090H   000073H   BYTE   INSEG    CODE           ?PR?LINE_V?TFT480X320_V2
FF0091H   FF009AH   00000AH   ---    ---      **GAP**
FF009BH   FF009DH   000003H   ---    OFFS..   CODE           ?PR?IV?19
FF009EH   FF00AAH   00000DH   BYTE   INSEG    CODE           ?PR?TIMER0_CONFIG?OSCOPE_V2_8BIT
FF00ABH   FF00ADH   000003H   ---    OFFS..   CODE           ?PR?IV?21
FF00AEH   FF0935H   000888H   BYTE   INSEG    CODE           ?PR?MAIN?OSCOPE_V2_8BIT
FF0936H   FF0BA8H   000273H   BYTE   UNIT     CODE           ?C?LIB_CODE
FF0BA9H   FF0D96H   0001EEH   BYTE   INSEG    CODE           ?PR?SHOWOSCOPE?OSCOPE_V2_8BIT
FF0D97H   FF0EF3H   00015DH   BYTE   INSEG    CODE           ?PR?LCD_INIT?TFT480X320_V2
FF0EF4H   FF104AH   000157H   BYTE   INSEG    CODE           ?PR?SHOWSTARTTIME?OSCOPE_V2_8BIT
FF104BH   FF1152H   000108H   BYTE   INSEG    CODE           ?PR?LINE_GRID5?TFT480X320_V2
FF1153H   FF1252H   000100H   BYTE   INSEG    CODE           ?PR?REALSHOWOSCOPE?OSCOPE_V2_8BIT
FF1253H   FF134FH   0000FDH   BYTE   INSEG    CODE           ?PR?READKEY?OSCOPE_V2_8BIT
FF1350H   FF144BH   0000FCH   BYTE   INSEG    CODE           ?PR?PWMA_CONFIG?OSCOPE_V2_8BIT
FF144CH   FF153AH   0000EFH   BYTE   INSEG    CODE           ?PR?SETSAMPLETIME?OSCOPE_V2_8BIT
FF153BH   FF1605H   0000CBH   BYTE   INSEG    CODE           ?PR?DMA_TEXT_ASCII_8X16?TFT480X320_V2
FF1606H   FF16CAH   0000C5H   BYTE   INSEG    CODE           ?PR?LINE_GRID25?TFT480X320_V2
FF16CBH   FF178BH   0000C1H   BYTE   INSEG    CODE           ?PR?DMA_HZ_16X16?TFT480X320_V2
FF178CH   FF184BH   0000C0H   BYTE   INSEG    CODE           ?PR?EEPROM_WRITE_N?EEPROM
FF184CH   FF190BH   0000C0H   BYTE   INSEG    CODE           ?PR?PWMB_CONFIG?OSCOPE_V2_8BIT
FF190CH   FF19BAH   0000AFH   BYTE   INSEG    CODE           ?PR?SHOWTIMEBASE?OSCOPE_V2_8BIT
FF19BBH   FF1A67H   0000ADH   BYTE   INSEG    CODE           ?PR?PRINTF_TEXT?TFT480X320_V2
FF1A68H   FF1B14H   0000ADH   BYTE   INSEG    CODE           ?PR?DMA_PRINTF_TEXT16?TFT480X320_V2
FF1B15H   FF1BBEH   0000AAH   BYTE   INSEG    CODE           ?PR?OSCOPE_INILIZE?OSCOPE_V2_8BIT
FF1BBFH   FF1C64H   0000A6H   BYTE   INSEG    CODE           ?PR?SHOWTRIGMODE?OSCOPE_V2_8BIT
FF1C65H   FF1CF4H   000090H   BYTE   INSEG    CODE           ?PR?TIMER0_ISR?OSCOPE_V2_8BIT
FF1CF5H   FF1D7EH   00008AH   BYTE   INSEG    CODE           ?PR?LCD_FILL_XY?TFT480X320_V2
FF1D7FH   FF1DEFH   000071H   BYTE   INSEG    CODE           ?PR?LINE_H?TFT480X320_V2
FF1DF0H   FF1E5FH   000070H   BYTE   INSEG    CODE           ?PR?TEXT_ASCII5X7?TFT480X320_V2
FF1E60H   FF1ECDH   00006EH   BYTE   INSEG    CODE           ?PR?HZ_12X12S?TFT480X320_V2
FF1ECEH   FF1F3AH   00006DH   BYTE   INSEG    CODE           ?PR?SHOWRUNSTOP?OSCOPE_V2_8BIT
FF1F3BH   FF1FA4H   00006AH   BYTE   INSEG    CODE           ?PR?TIMER3_CONFIG?OSCOPE_V2_8BIT
FF1FA5H   FF1FFEH   00005AH   BYTE   INSEG    CODE           ?PR?TIMER3_ISR?OSCOPE_V2_8BIT
FF1FFFH   FF2054H   000056H   BYTE   INSEG    CODE           ?PR?SHOWVOLTAGE?OSCOPE_V2_8BIT
FF2055H   FF20A9H   000055H   BYTE   INSEG    CODE           ?PR?RECTANGLE?TFT480X320_V2
FF20AAH   FF20F9H   000050H   BYTE   INSEG    CODE           ?PR?LCD_SETWINDOWS?TFT480X320_V2
FF20FAH   FF2144H   00004BH   BYTE   INSEG    CODE           ?PR?OSCSTOP?OSCOPE_V2_8BIT
FF2145H   FF218EH   00004AH   BYTE   INSEG    CODE           ?PR?EEPROM_READ_N?EEPROM
FF218FH   FF21D0H   000042H   BYTE   INSEG    CODE           ?PR?DMA_CONFIG?TFT480X320_V2
FF21D1H   FF21E3H   000013H   BYTE   UNIT     CODE           ?C_C51STARTUP
FF21E4H   FF220CH   000029H   BYTE   UNIT     CODE           ?C_C51STARTUP?2
FF220DH   FF220FH   000003H   BYTE   UNIT     CODE           ?C_C51STARTUP?3
FF2210H   FF224BH   00003CH   BYTE   INSEG    CODE           ?PR?COMPARE_CONFIG?OSCOPE_V2_8BIT
FF224CH   FF2283H   000038H   BYTE   INSEG    CODE           ?PR?INT1_ISR?OSCOPE_V2_8BIT
FF2284H   FF22BAH   000037H   BYTE   INSEG    CODE           ?PR?SHOWPHASE?OSCOPE_V2_8BIT
FF22BBH   FF22F0H   000036H   BYTE   INSEG    CODE           ?PR?SETVIEW_V?TFT480X320_V2
FF22F1H   FF2326H   000036H   BYTE   INSEG    CODE           ?PR?SETVIEW_H?TFT480X320_V2
FF2327H   FF2357H   000031H   BYTE   INSEG    CODE           ?PR?WRITE_8DOTS?TFT480X320_V2
FF2358H   FF2382H   00002BH   BYTE   INSEG    CODE           ?PR?LCM_CONFIG?TFT480X320_V2
FF2383H   FF23ADH   00002BH   BYTE   INSEG    CODE           ?PR?WRITE_7DOTS?TFT480X320_V2
FF23AEH   FF23D1H   000024H   BYTE   INSEG    CODE           ?PR?AUTOCHECK?OSCOPE_V2_8BIT
FF23D2H   FF23F4H   000023H   BYTE   INSEG    CODE           ?PR?CMP_ISR?OSCOPE_V2_8BIT
FF23F5H   FF2416H   000022H   BYTE   INSEG    CODE           ?PR?TIMER4_CONFIG?OSCOPE_V2_8BIT
FF2417H   FF2437H   000021H   BYTE   INSEG    CODE           ?PR?WRITESINGLEDOT?TFT480X320_V2
FF2438H   FF2455H   00001EH   BYTE   INSEG    CODE           ?PR?TIMER1_CONFIG?OSCOPE_V2_8BIT
L251 LINKER/LOCATER V4.66.93.0                                                        07/20/2022  18:50:16  PAGE 3


FF2456H   FF2472H   00001DH   BYTE   INSEG    CODE           ?PR?ADC_CONFIG?OSCOPE_V2_8BIT
FF2473H   FF248DH   00001BH   BYTE   INSEG    CODE           ?PR?EEPROM_SECTORERASE?EEPROM
FF248EH   FF24A4H   000017H   BYTE   INSEG    CODE           ?PR?LCD_DELAY?TFT480X320_V2
FF24A5H   FF24B9H   000015H   BYTE   INSEG    CODE           ?PR?EEPROM_TRIG?EEPROM
FF24BAH   FF24CEH   000015H   BYTE   INSEG    CODE           ?PR?LCD_REGWRITECOMD?TFT480X320_V2
FF24CFH   FF24E1H   000013H   BYTE   INSEG    CODE           ?PR?DISABLEEEPROM?EEPROM
FF24E2H   FF24F2H   000011H   BYTE   INSEG    CODE           ?PR?LCD_REGWRITEDATA?TFT480X320_V2
FF24F3H   FF2500H   00000EH   BYTE   INSEG    CODE           ?PR?TIMER1_ISR?OSCOPE_V2_8BIT
FF2501H   FF3548H   001048H   BYTE   UNIT     HCONST         ?HC?TFT480X320_V2
FF3549H   FF3784H   00023CH   BYTE   UNIT     HCONST         ?HC?OSCOPE_V2_8BIT
FF3785H   FF37AAH   000026H   BYTE   UNIT     HCONST         ?C_INITEDATA



OVERLAY MAP OF MODULE:   .\Objects\OSCOPE (EEPROM)


FUNCTION/MODULE                        EDATA_GROUP
--> CALLED FUNCTION/MODULE             START  STOP
==================================================
Timer3_ISR/OSCOPE-V2-8bit              ----- -----

*** NEW ROOT *************************

timer0_ISR/OSCOPE-V2-8bit              ----- -----

*** NEW ROOT *************************

timer1_ISR/OSCOPE-V2-8bit              ----- -----

*** NEW ROOT *************************

CMP_ISR/OSCOPE-V2-8bit                 ----- -----

*** NEW ROOT *************************

INT1_ISR/OSCOPE-V2-8bit                ----- -----

*** NEW ROOT *************************

?C_C51STARTUP                          ----- -----

*** NEW ROOT *************************

?C_C51STARTUP?3                        ----- -----
  +--> main/OSCOPE-V2-8bit

main/OSCOPE-V2-8bit                    ----- -----
  +--> ADC_config/OSCOPE-V2-8bit
  +--> Compare_Config/OSCOPE-V2-8bit
  +--> Timer0_config/OSCOPE-V2-8bit
  +--> Timer1_config/OSCOPE-V2-8bit
  +--> Timer3_Config/OSCOPE-V2-8bit
  +--> Timer4_Config/OSCOPE-V2-8bit
  +--> PWMA_config/OSCOPE-V2-8bit
  +--> PWMB_config/OSCOPE-V2-8bit
  +--> EEPROM_read_n/EEPROM
  +--> LCD_Init/TFT480x320-V2
  +--> SetView_H/TFT480x320-V2
  +--> LCM_Config/TFT480x320-V2
  +--> DMA_Config/TFT480x320-V2
  +--> DMA_printf_text16/TFT480x320-V2
  +--> ReadKey/OSCOPE-V2-8bit
  +--> LCD_Fill_XY/TFT480x320-V2
  +--> printf_text/TFT480x320-V2
L251 LINKER/LOCATER V4.66.93.0                                                        07/20/2022  18:50:16  PAGE 4


  +--> ShowTrigMode/OSCOPE-V2-8bit
  +--> ShowPhase/OSCOPE-V2-8bit
  +--> SetSampleTime/OSCOPE-V2-8bit
  +--> OSCOPE_inilize/OSCOPE-V2-8bit
  +--> ShowVoltage/OSCOPE-V2-8bit
  +--> ShowRunStop/OSCOPE-V2-8bit
  +--> AutoCheck/OSCOPE-V2-8bit
  +--> EEPROM_SectorErase/EEPROM
  +--> EEPROM_write_n/EEPROM
  +--> ShowOscope/OSCOPE-V2-8bit
  +--> RealShowOscope/OSCOPE-V2-8bit
  +--> OscStop/OSCOPE-V2-8bit
  +--> ?C?ULIDIV/?C?ULDIV
  +--> text_ascii5x7/TFT480x320-V2
  +--> ?C?SLDIV/?C?SLDIV
  +--> ShowTimeBase/OSCOPE-V2-8bit
  +--> ShowStartTime/OSCOPE-V2-8bit

ADC_config/OSCOPE-V2-8bit              ----- -----

Compare_Config/OSCOPE-V2-8bit          ----- -----

Timer0_config/OSCOPE-V2-8bit           ----- -----

Timer1_config/OSCOPE-V2-8bit           ----- -----

Timer3_Config/OSCOPE-V2-8bit           ----- -----
  +--> ?C?ULIDIV/?C?ULDIV

?C?ULIDIV/?C?ULDIV                     ----- -----

Timer4_Config/OSCOPE-V2-8bit           ----- -----

PWMA_config/OSCOPE-V2-8bit             ----- -----

PWMB_config/OSCOPE-V2-8bit             ----- -----

EEPROM_read_n/EEPROM                   0008H 000CH
  +--> EEPROM_Trig/EEPROM
  +--> DisableEEPROM/EEPROM

EEPROM_Trig/EEPROM                     ----- -----

DisableEEPROM/EEPROM                   ----- -----

LCD_Init/TFT480x320-V2                 ----- -----
  +--> LCD_delay/TFT480x320-V2
  +--> LCD_RegWriteComd/TFT480x320-V2
  +--> LCD_RegWriteData/TFT480x320-V2
  +--> SetView_V/TFT480x320-V2
  +--> LCD_Fill_XY/TFT480x320-V2

LCD_delay/TFT480x320-V2                ----- -----

LCD_RegWriteComd/TFT480x320-V2         ----- -----

LCD_RegWriteData/TFT480x320-V2         ----- -----

SetView_V/TFT480x320-V2                ----- -----
  +--> LCD_RegWriteComd/TFT480x320-V2
  +--> LCD_RegWriteData/TFT480x320-V2

LCD_Fill_XY/TFT480x320-V2              0008H 0009H
  +--> LCD_SetWindows/TFT480x320-V2

L251 LINKER/LOCATER V4.66.93.0                                                        07/20/2022  18:50:16  PAGE 5


LCD_SetWindows/TFT480x320-V2           000FH 0012H
  +--> LCD_RegWriteComd/TFT480x320-V2
  +--> LCD_RegWriteData/TFT480x320-V2

SetView_H/TFT480x320-V2                ----- -----
  +--> LCD_RegWriteComd/TFT480x320-V2
  +--> LCD_RegWriteData/TFT480x320-V2

LCM_Config/TFT480x320-V2               ----- -----

DMA_Config/TFT480x320-V2               ----- -----

DMA_printf_text16/TFT480x320-V2        0008H 000EH
  +--> DMA_text_ascii_8x16/TFT480x320-V2
  +--> DMA_HZ_16x16/TFT480x320-V2

DMA_text_ascii_8x16/TFT480x320-V2      ----- -----
  +--> LCD_SetWindows/TFT480x320-V2

DMA_HZ_16x16/TFT480x320-V2             ----- -----
  +--> LCD_SetWindows/TFT480x320-V2

ReadKey/OSCOPE-V2-8bit                 ----- -----

printf_text/TFT480x320-V2              0008H 000EH
  +--> text_ascii5x7/TFT480x320-V2
  +--> HZ_12x12s/TFT480x320-V2

text_ascii5x7/TFT480x320-V2            ----- -----
  +--> LCD_SetWindows/TFT480x320-V2

HZ_12x12s/TFT480x320-V2                ----- -----
  +--> LCD_SetWindows/TFT480x320-V2

ShowTrigMode/OSCOPE-V2-8bit            ----- -----
  +--> LCD_Fill_XY/TFT480x320-V2
  +--> printf_text/TFT480x320-V2

ShowPhase/OSCOPE-V2-8bit               ----- -----
  +--> printf_text/TFT480x320-V2

SetSampleTime/OSCOPE-V2-8bit           ----- -----
  +--> ShowTimeBase/OSCOPE-V2-8bit

ShowTimeBase/OSCOPE-V2-8bit            ----- -----
  +--> text_ascii5x7/TFT480x320-V2

OSCOPE_inilize/OSCOPE-V2-8bit          ----- -----
  +--> SetView_V/TFT480x320-V2
  +--> Rectangle/TFT480x320-V2
  +--> Line_h/TFT480x320-V2
  +--> SetView_H/TFT480x320-V2
  +--> text_ascii5x7/TFT480x320-V2

Rectangle/TFT480x320-V2                0008H 000DH
  +--> Line_h/TFT480x320-V2
  +--> Line_v/TFT480x320-V2

Line_h/TFT480x320-V2                   ----- -----
  +--> LCD_SetWindows/TFT480x320-V2

Line_v/TFT480x320-V2                   ----- -----
  +--> LCD_SetWindows/TFT480x320-V2

ShowVoltage/OSCOPE-V2-8bit             ----- -----
L251 LINKER/LOCATER V4.66.93.0                                                        07/20/2022  18:50:16  PAGE 6


  +--> printf_text/TFT480x320-V2

ShowRunStop/OSCOPE-V2-8bit             ----- -----
  +--> LCD_Fill_XY/TFT480x320-V2
  +--> printf_text/TFT480x320-V2

AutoCheck/OSCOPE-V2-8bit               ----- -----

EEPROM_SectorErase/EEPROM              ----- -----
  +--> EEPROM_Trig/EEPROM
  +--> DisableEEPROM/EEPROM

EEPROM_write_n/EEPROM                  0008H 0013H
  +--> EEPROM_Trig/EEPROM
  +--> DisableEEPROM/EEPROM

ShowOscope/OSCOPE-V2-8bit              0008H 000AH
  +--> SetView_V/TFT480x320-V2
  +--> Line_Grid5/TFT480x320-V2
  +--> Line_Grid25/TFT480x320-V2
  +--> Line_h/TFT480x320-V2
  +--> WriteSingleDot/TFT480x320-V2
  +--> SetView_H/TFT480x320-V2

Line_Grid5/TFT480x320-V2               ----- -----
  +--> LCD_SetWindows/TFT480x320-V2

Line_Grid25/TFT480x320-V2              ----- -----
  +--> LCD_SetWindows/TFT480x320-V2
  +--> Write_8dots/TFT480x320-V2
  +--> Write_7dots/TFT480x320-V2

Write_8dots/TFT480x320-V2              ----- -----

Write_7dots/TFT480x320-V2              ----- -----

WriteSingleDot/TFT480x320-V2           ----- -----
  +--> LCD_SetWindows/TFT480x320-V2

RealShowOscope/OSCOPE-V2-8bit          ----- -----
  +--> SetView_V/TFT480x320-V2
  +--> Line_Grid5/TFT480x320-V2
  +--> Line_Grid25/TFT480x320-V2
  +--> Line_h/TFT480x320-V2
  +--> WriteSingleDot/TFT480x320-V2
  +--> SetView_H/TFT480x320-V2

OscStop/OSCOPE-V2-8bit                 ----- -----
  +--> ShowRunStop/OSCOPE-V2-8bit
  +--> ShowStartTime/OSCOPE-V2-8bit

ShowStartTime/OSCOPE-V2-8bit           ----- -----
  +--> printf_text/TFT480x320-V2

?C?SLDIV/?C?SLDIV                      ----- -----
  +--> ?C?ULIDIV/?C?ULDIV

*** NEW ROOT *************************

?C_C51STARTUP?2                        ----- -----



PUBLIC SYMBOLS OF MODULE:  .\Objects\OSCOPE (EEPROM)

L251 LINKER/LOCATER V4.66.93.0                                                        07/20/2022  18:50:16  PAGE 7



      VALUE       CLASS    TYPE      PUBLIC SYMBOL NAME
      =================================================
      00FF0A94H   CODE     NEAR LAB  ?C?CASTF
      000000FFH   NUMBER   ---       ?C?CODESEG
      00FF0A61H   CODE     NEAR LAB  ?C?FCASTC
      00FF0A5CH   CODE     NEAR LAB  ?C?FCASTI
      00FF0A57H   CODE     NEAR LAB  ?C?FCASTL
      00FF09D6H   CODE     ---       ?C?FPDIV
      00FF0AD1H   CODE     ---       ?C?FPGETOPN2
      00FF0936H   CODE     ---       ?C?FPMUL
      00FF0B0EH   CODE     ---       ?C?FPNANRESULT
      00FF0B16H   CODE     ---       ?C?FPOVERFLOW
      00FF0AEAH   CODE     ---       ?C?FPRESULT
      00FF0B00H   CODE     ---       ?C?FPRESULT2
      00FF0B13H   CODE     ---       ?C?FPUNDERFLOW
      00FF21E4H   CODE     ---       ?C?INITEDATA
      00FF37A9H   HCONST   WORD      ?C?INITEDATA_END
      00FF0B75H   CODE     NEAR LAB  ?C?SLDIV
      00FF0000H   CODE     ---       ?C?STARTUP
      00FF0B24H   CODE     NEAR LAB  ?C?ULDIV
      00FF0B22H   CODE     NEAR LAB  ?C?ULIDIV
      00000001H   NUMBER   ---       ?C?XDATASEG
      00FF0000H   CODE     ---       ?C_STARTUP
      00000000H   EDATA    BYTE      ?LCD_Fill_XY?BYTE
      00000004H   EDATA    BYTE      ?Rectangle?BYTE
*SFR* 000000E0H   DATA     BYTE      ACC
      00000029H   EDATA    BYTE      adc
      00FF2456H   CODE     ---       ADC_config
*SFR* 000000BCH   DATA     BYTE      ADC_CONTR
      000003AEH   EDATA    WORD      adc_rd
*SFR* 000000BDH   DATA     BYTE      ADC_RES
*SFR* 000000BEH   DATA     BYTE      ADC_RESL
      00010000H   XDATA    ---       adc_sample
      00000213H   EDATA    ---       adc_tmp
      000003B2H   EDATA    WORD      adc_wr
*SFR* 000000DEH   DATA     BYTE      ADCCFG
      00FF2F21H   HCONST   ---       ASCII5x7
      00FF2501H   HCONST   ---       ASCII_8x16_H
      00FF23AEH   CODE     ---       AutoCheck
      0000004AH   EDATA    BYTE      AutoTime
      0000020BH   EDATA    BYTE      AutoTimeCnt
*SFR* 0000008EH   DATA     BYTE      AUXR
*SFR* 000000F0H   DATA     BYTE      B
      00000021H.1 BIT      BIT       B_32ms
      00000020H.5 BIT      BIT       B_8ms
      00000021H.3 BIT      BIT       B_ADC_Busy
      00000020H.1 BIT      BIT       B_FrequencyOk
      00000020H.4 BIT      BIT       B_KeyRepeat
      00000020H.7 BIT      BIT       B_Run
      00000021H.0 BIT      BIT       B_RUN_REQ
      00000021H.2 BIT      BIT       B_sample_ms
      00000020H.0 BIT      BIT       B_Sample_OK
      00000020H.2 BIT      BIT       B_Shift
      00000020H.6 BIT      BIT       B_TrigMode
      00000020H.3 BIT      BIT       B_TrigPhase
      00000014H   EDATA    WORD      background
*SFR* 000000EAH   DATA     BYTE      CKCON
      00FF23D2H   CODE     ---       CMP_ISR
*SFR* 000000E6H   DATA     BYTE      CMPCR1
*SFR* 000000E7H   DATA     BYTE      CMPCR2
      000003B1H   EDATA    BYTE      cnt_32ms
      00000050H   EDATA    BYTE      cnt_8ms
      00FF2210H   CODE     ---       Compare_Config
      0000020CH   EDATA    BYTE      Current_TimeBase
L251 LINKER/LOCATER V4.66.93.0                                                        07/20/2022  18:50:16  PAGE 8


      00FF24CFH   CODE     ---       DisableEEPROM
      00FF218FH   CODE     ---       DMA_Config
      00FF16CBH   CODE     ---       DMA_HZ_16x16
      00FF1A68H   CODE     ---       DMA_printf_text16
      00FF153BH   CODE     ---       DMA_text_ascii_8x16
      00010FA8H   XDATA    ---       DMA_tmp
      00000051H   EDATA    ---       dot
*SFR* 000000A8H.7 DATA     BIT       EA
      00FF2145H   CODE     ---       EEPROM_read_n
      00FF2473H   CODE     ---       EEPROM_SectorErase
      00FF24A5H   CODE     ---       EEPROM_Trig
      00FF178CH   CODE     ---       EEPROM_write_n
*SFR* 000000A8H.1 DATA     BIT       ET0
*SFR* 000000A8H.3 DATA     BIT       ET1
*SFR* 000000A8H.2 DATA     BIT       EX1
*SFR* 000000D0H.5 DATA     BIT       F0
      00000016H   EDATA    WORD      foreground
      0000020DH   EDATA    BYTE      freq_H
      0000020EH   EDATA    DWORD     frequency
      00FF1E60H   CODE     ---       HZ_12x12s
      00FF3522H   HCONST   ---       HZK
      00FF3389H   HCONST   ---       HZK12
      00FF34DFH   HCONST   ---       HZK16
      00FF2B01H   HCONST   ---       HZK_16
*SFR* 000000F6H   DATA     BYTE      IAP_ADDRE
*SFR* 000000C3H   DATA     BYTE      IAP_ADDRH
*SFR* 000000C4H   DATA     BYTE      IAP_ADDRL
*SFR* 000000C5H   DATA     BYTE      IAP_CMD
*SFR* 000000C7H   DATA     BYTE      IAP_CONTR
*SFR* 000000C2H   DATA     BYTE      IAP_DATA
*SFR* 000000F5H   DATA     BYTE      IAP_TPS
*SFR* 000000C6H   DATA     BYTE      IAP_TRIG
*SFR* 000000A8H   DATA     BYTE      IE
*SFR* 000000AFH   DATA     BYTE      IE2
      00000026H   EDATA    BYTE      InputIndex
      00FF224CH   CODE     ---       INT1_ISR
*SFR* 000000B8H   DATA     BYTE      IP
*SFR* 000000B5H   DATA     BYTE      IP2
*SFR* 000000B6H   DATA     BYTE      IP2H
*SFR* 000000C3H   DATA     BYTE      ISP_ADDRH
*SFR* 000000C4H   DATA     BYTE      ISP_ADDRL
*SFR* 000000C5H   DATA     BYTE      ISP_CMD
*SFR* 000000C7H   DATA     BYTE      ISP_CONTR
*SFR* 000000C6H   DATA     BYTE      ISP_TRIG
*SFR* 00000088H.2 DATA     BIT       IT1
      00000028H   EDATA    BYTE      KeyCode
      00000212H   EDATA    BYTE      KeyHoldCnt
      0000004DH   EDATA    BYTE      KeyState
      0000004EH   EDATA    WORD      LastDot
*SFR* 000000E8H   DATA     BYTE      LCD_BUS_H
*SFR* 000000A0H   DATA     BYTE      LCD_BUS_L
*SFR* 000000C0H.3 DATA     BIT       LCD_CS
      00FF248EH   CODE     ---       LCD_delay
      00FF1CF5H   CODE     ---       LCD_Fill_XY
      00FF0D97H   CODE     ---       LCD_Init
      00FF24BAH   CODE     ---       LCD_RegWriteComd
      00FF24E2H   CODE     ---       LCD_RegWriteData
*SFR* 000000C0H.5 DATA     BIT       LCD_RS
*SFR* 000000C0H.1 DATA     BIT       LCD_RST
      00FF20AAH   CODE     ---       LCD_SetWindows
*SFR* 000000C0H.2 DATA     BIT       LCD_WR
      00FF2358H   CODE     ---       LCM_Config
      00FF1606H   CODE     ---       Line_Grid25
      00FF104BH   CODE     ---       Line_Grid5
      00FF1D7FH   CODE     ---       Line_h
L251 LINKER/LOCATER V4.66.93.0                                                        07/20/2022  18:50:16  PAGE 9


      00FF001EH   CODE     ---       Line_v
      00FF00AEH   CODE     ---       main
      00FF1B15H   CODE     ---       OSCOPE_inilize
      00FF20FAH   CODE     ---       OscStop
*SFR* 00000080H   DATA     BYTE      P0
*SFR* 00000094H   DATA     BYTE      P0M0
*SFR* 00000093H   DATA     BYTE      P0M1
*SFR* 00000090H   DATA     BYTE      P1
*SFR* 00000092H   DATA     BYTE      P1M0
*SFR* 00000091H   DATA     BYTE      P1M1
*SFR* 000000A0H   DATA     BYTE      P2
*SFR* 00000096H   DATA     BYTE      P2M0
*SFR* 00000095H   DATA     BYTE      P2M1
*SFR* 000000B0H   DATA     BYTE      P3
*SFR* 000000B0H.3 DATA     BIT       P33
*SFR* 000000B0H.5 DATA     BIT       P35
*SFR* 000000B2H   DATA     BYTE      P3M0
*SFR* 000000B1H   DATA     BYTE      P3M1
*SFR* 000000C0H   DATA     BYTE      P4
*SFR* 000000B4H   DATA     BYTE      P4M0
*SFR* 000000B3H   DATA     BYTE      P4M1
*SFR* 000000C8H   DATA     BYTE      P5
*SFR* 000000CAH   DATA     BYTE      P5M0
*SFR* 000000C9H   DATA     BYTE      P5M1
*SFR* 000000E8H   DATA     BYTE      P6
*SFR* 000000CCH   DATA     BYTE      P6M0
*SFR* 000000CBH   DATA     BYTE      P6M1
*SFR* 000000F8H   DATA     BYTE      P7
*SFR* 000000E2H   DATA     BYTE      P7M0
*SFR* 000000E1H   DATA     BYTE      P7M1
*SFR* 000000F8H.3 DATA     BIT       P_K_DOWN
*SFR* 000000F8H.2 DATA     BIT       P_K_LEFT
*SFR* 000000F8H.0 DATA     BIT       P_K_OK
*SFR* 000000F8H.1 DATA     BIT       P_K_RIGHT
*SFR* 000000F8H.4 DATA     BIT       P_K_UP
*SFR* 000000BAH   DATA     BYTE      P_SW2
*SFR* 00000080H.6 DATA     BIT       P_V_A
*SFR* 00000080H.5 DATA     BIT       P_V_B
*SFR* 000000C8H.3 DATA     BIT       P_V_C
      00FF19BBH   CODE     ---       printf_text
*SFR* 000000D0H   DATA     BYTE      PSW
*SFR* 000000B8H.1 DATA     BIT       PT0
      000003ADH   EDATA    BYTE      pwm1_voltage
      00FF1350H   CODE     ---       PWMA_config
      00FF184CH   CODE     ---       PWMB_config
      00FF1253H   CODE     ---       ReadKey
      00FF1153H   CODE     ---       RealShowOscope
      00FF2055H   CODE     ---       Rectangle
      0000004BH   EDATA    WORD      sample_cnt
      000003B0H   EDATA    BYTE      SampleIndex
      000003B4H   EDATA    WORD      SampleTime
      00FF3731H   HCONST   ---       SampleTimeTable
*SFR* 00000098H   DATA     BYTE      SCON
      00FF144CH   CODE     ---       SetSampleTime
      00FF22F1H   CODE     ---       SetView_H
      00FF22BBH   CODE     ---       SetView_V
      00000023H   EDATA    WORD      Shift
      00FF0BA9H   CODE     ---       ShowOscope
      00FF2284H   CODE     ---       ShowPhase
      00FF1ECEH   CODE     ---       ShowRunStop
      00FF0EF4H   CODE     ---       ShowStartTime
      00FF190CH   CODE     ---       ShowTimeBase
      00FF1BBFH   CODE     ---       ShowTrigMode
      00FF1FFFH   CODE     ---       ShowVoltage
      00000025H   EDATA    BYTE      SineIndex
L251 LINKER/LOCATER V4.66.93.0                                                        07/20/2022  18:50:16  PAGE 10


      00FF36C9H   HCONST   ---       StartTimeTable
*SFR* 000000D4H   DATA     BYTE      T3H
*SFR* 000000D5H   DATA     BYTE      T3L
*SFR* 000000D2H   DATA     BYTE      T4H
*SFR* 000000D3H   DATA     BYTE      T4L
*SFR* 000000DDH   DATA     BYTE      T4T3M
      00FF36F3H   HCONST   ---       T_SIN
      00FF375BH   HCONST   ---       T_Time_div
      00FF3725H   HCONST   ---       T_TimeScale
      00FF36BBH   HCONST   ---       T_V_GAIN
      0000002AH   EDATA    ---       T_VOLTAGE10
*SFR* 00000088H   DATA     BYTE      TCON
      00FF1DF0H   CODE     ---       text_ascii5x7
*SFR* 0000008CH   DATA     BYTE      TH0
*SFR* 0000008DH   DATA     BYTE      TH1
      00FF009EH   CODE     ---       Timer0_config
      00FF1C65H   CODE     ---       timer0_ISR
      00FF2438H   CODE     ---       Timer1_config
      00FF24F3H   CODE     ---       timer1_ISR
      00FF1F3BH   CODE     ---       Timer3_Config
      00FF1FA5H   CODE     ---       Timer3_ISR
      00FF23F5H   CODE     ---       Timer4_Config
      000003B7H   EDATA    BYTE      TimeScale
      000003B6H   EDATA    BYTE      TimeScaleIndex
*SFR* 0000008AH   DATA     BYTE      TL0
*SFR* 0000008BH   DATA     BYTE      TL1
*SFR* 00000089H   DATA     BYTE      TMOD
      000001EBH   EDATA    ---       tmp
*SFR* 00000088H.4 DATA     BIT       TR0
*SFR* 00000088H.6 DATA     BIT       TR1
      00000027H   EDATA    BYTE      TrigMode
      00FF2383H   CODE     ---       Write_7dots
      00FF2327H   CODE     ---       Write_8dots
      00000022H   EDATA    BYTE      WriteDelay
      00FF2417H   CODE     ---       WriteSingleDot
*SFR* 000000E9H   DATA     BYTE      WTST



SYMBOL TABLE OF MODULE:  .\Objects\OSCOPE (EEPROM)

      VALUE       REP       CLASS    TYPE      SYMBOL NAME
      ====================================================
      ---         MODULE    ---      ---       EEPROM
      00FF24CFH   PUBLIC    CODE     ---       DisableEEPROM
      00FF2473H   PUBLIC    CODE     ---       EEPROM_SectorErase
      00FF2145H   PUBLIC    CODE     ---       EEPROM_read_n
      00FF178CH   PUBLIC    CODE     ---       EEPROM_write_n
      00FF24A5H   PUBLIC    CODE     ---       EEPROM_Trig
      000000D0H   SFRSYM    DATA     BYTE      PSW
      000000D0H.5 SFRSYM    DATA     BIT       F0
      000000C6H   SFRSYM    DATA     BYTE      IAP_TRIG
      000000C2H   SFRSYM    DATA     BYTE      IAP_DATA
      000000C7H   SFRSYM    DATA     BYTE      ISP_CONTR
      000000E0H   SFRSYM    DATA     BYTE      ACC
      000000C7H   SFRSYM    DATA     BYTE      IAP_CONTR
      000000F0H   SFRSYM    DATA     BYTE      B
      000000C4H   SFRSYM    DATA     BYTE      ISP_ADDRL
      00000088H   SFRSYM    DATA     BYTE      TCON
      00000098H   SFRSYM    DATA     BYTE      SCON
      000000F5H   SFRSYM    DATA     BYTE      IAP_TPS
      000000C3H   SFRSYM    DATA     BYTE      ISP_ADDRH
      000000C4H   SFRSYM    DATA     BYTE      IAP_ADDRL
      000000C5H   SFRSYM    DATA     BYTE      ISP_CMD
      000000C3H   SFRSYM    DATA     BYTE      IAP_ADDRH
L251 LINKER/LOCATER V4.66.93.0                                                        07/20/2022  18:50:16  PAGE 11


      000000F6H   SFRSYM    DATA     BYTE      IAP_ADDRE
      000000B8H   SFRSYM    DATA     BYTE      IP
      000000C5H   SFRSYM    DATA     BYTE      IAP_CMD
      000000A8H   SFRSYM    DATA     BYTE      IE
      000000F8H   SFRSYM    DATA     BYTE      P7
      000000E8H   SFRSYM    DATA     BYTE      P6
      000000A8H.7 SFRSYM    DATA     BIT       EA
      000000C6H   SFRSYM    DATA     BYTE      ISP_TRIG
      000000C8H   SFRSYM    DATA     BYTE      P5
      000000C0H   SFRSYM    DATA     BYTE      P4
      000000B0H   SFRSYM    DATA     BYTE      P3
      000000A0H   SFRSYM    DATA     BYTE      P2
      00000090H   SFRSYM    DATA     BYTE      P1
      00000080H   SFRSYM    DATA     BYTE      P0

      00FF24CFH   BLOCK     CODE     ---       LVL=0
      00FF24CFH   LINE      CODE     ---       #41
      00FF24CFH   LINE      CODE     ---       #43
      00FF24D2H   LINE      CODE     ---       #44
      00FF24D5H   LINE      CODE     ---       #45
      00FF24D8H   LINE      CODE     ---       #46
      00FF24DBH   LINE      CODE     ---       #47
      00FF24DEH   LINE      CODE     ---       #48
      00FF24E1H   LINE      CODE     ---       #49
      ---         BLOCKEND  ---      ---       LVL=0

      00FF24A5H   BLOCK     CODE     ---       LVL=0
      00FF24A5H   LINE      CODE     ---       #58
      00FF24A5H   LINE      CODE     ---       #60
      00FF24A9H   LINE      CODE     ---       #61
      00FF24ABH   LINE      CODE     ---       #62
      00FF24AEH   LINE      CODE     ---       #63
      00FF24B1H   LINE      CODE     ---       #66
      00FF24B2H   LINE      CODE     ---       #67
      00FF24B3H   LINE      CODE     ---       #68
      00FF24B4H   LINE      CODE     ---       #69
      00FF24B5H   LINE      CODE     ---       #70
      00FF24B9H   LINE      CODE     ---       #71
      ---         BLOCKEND  ---      ---       LVL=0

      00FF2473H   BLOCK     CODE     ---       LVL=0
      DR4         REGSYM    ---      DWORD     EE_address
      00FF2473H   LINE      CODE     ---       #80
      00FF2473H   LINE      CODE     ---       #82
      00FF2479H   LINE      CODE     ---       #83
      00FF247CH   LINE      CODE     ---       #86
      00FF2480H   LINE      CODE     ---       #87
      00FF2484H   LINE      CODE     ---       #88
      00FF2488H   LINE      CODE     ---       #89
      00FF248BH   LINE      CODE     ---       #90
      ---         BLOCKEND  ---      ---       LVL=0

      00FF2145H   BLOCK     CODE     ---       LVL=0
      DR12        REGSYM    ---      DWORD     EE_address
      00000008H   SYMBOL    EDATA    ---       DataAddress
      0000000CH   SYMBOL    EDATA    BYTE      length
      00FF2145H   LINE      CODE     ---       #102
      00FF2151H   LINE      CODE     ---       #104
      00FF2157H   LINE      CODE     ---       #105
      00FF215AH   LINE      CODE     ---       #106
      00FF215AH   LINE      CODE     ---       #108
      00FF215EH   LINE      CODE     ---       #109
      00FF2162H   LINE      CODE     ---       #110
      00FF2166H   LINE      CODE     ---       #111
      00FF2169H   LINE      CODE     ---       #112
L251 LINKER/LOCATER V4.66.93.0                                                        07/20/2022  18:50:16  PAGE 12


      00FF2172H   LINE      CODE     ---       #113
      00FF2174H   LINE      CODE     ---       #114
      00FF217EH   LINE      CODE     ---       #115
      00FF2189H   LINE      CODE     ---       #117
      00FF218CH   LINE      CODE     ---       #118
      ---         BLOCKEND  ---      ---       LVL=0

      00FF178CH   BLOCK     CODE     ---       LVL=0
      DR12        REGSYM    ---      DWORD     EE_address
      00000008H   SYMBOL    EDATA    ---       DataAddress
      0000000CH   SYMBOL    EDATA    BYTE      length
      00FF1798H   BLOCK     CODE     NEAR LAB  LVL=1
      0000000DH   SYMBOL    EDATA    BYTE      i
      0000000EH   SYMBOL    EDATA    WORD      j
      00000010H   SYMBOL    EDATA    ---       p
      ---         BLOCKEND  ---      ---       LVL=1
      00FF178CH   LINE      CODE     ---       #130
      00FF1798H   LINE      CODE     ---       #131
      00FF1798H   LINE      CODE     ---       #136
      00FF17A5H   LINE      CODE     ---       #138
      00FF17ABH   LINE      CODE     ---       #139
      00FF17AFH   LINE      CODE     ---       #140
      00FF17B3H   LINE      CODE     ---       #141
      00FF17BBH   LINE      CODE     ---       #142
      00FF17BEH   LINE      CODE     ---       #143
      00FF17BEH   LINE      CODE     ---       #145
      00FF17C2H   LINE      CODE     ---       #146
      00FF17C6H   LINE      CODE     ---       #147
      00FF17CAH   LINE      CODE     ---       #148
      00FF17D3H   LINE      CODE     ---       #149
      00FF17D6H   LINE      CODE     ---       #150
      00FF17D8H   LINE      CODE     ---       #151
      00FF17E2H   LINE      CODE     ---       #152
      00FF17EDH   LINE      CODE     ---       #154
      00FF17F3H   LINE      CODE     ---       #155
      00FF17FBH   LINE      CODE     ---       #156
      00FF1803H   LINE      CODE     ---       #157
      00FF1808H   LINE      CODE     ---       #158
      00FF180BH   LINE      CODE     ---       #159
      00FF180BH   LINE      CODE     ---       #161
      00FF180FH   LINE      CODE     ---       #162
      00FF1813H   LINE      CODE     ---       #163
      00FF1817H   LINE      CODE     ---       #164
      00FF181AH   LINE      CODE     ---       #165
      00FF1827H   LINE      CODE     ---       #167
      00FF182DH   LINE      CODE     ---       #168
      00FF182FH   LINE      CODE     ---       #169
      00FF182FH   LINE      CODE     ---       #170
      00FF1831H   LINE      CODE     ---       #171
      00FF1837H   LINE      CODE     ---       #172
      00FF1842H   LINE      CODE     ---       #174
      00FF1845H   LINE      CODE     ---       #175
      00FF1849H   LINE      CODE     ---       #176
      ---         BLOCKEND  ---      ---       LVL=0

      ---         MODULE    ---      ---       TFT480x320-V2
      00FF22BBH   PUBLIC    CODE     ---       SetView_V
      00FF218FH   PUBLIC    CODE     ---       DMA_Config
      00FF2358H   PUBLIC    CODE     ---       LCM_Config
      00FF1DF0H   PUBLIC    CODE     ---       text_ascii5x7
      00FF2055H   PUBLIC    CODE     ---       Rectangle
      00FF2417H   PUBLIC    CODE     ---       WriteSingleDot
      00FF104BH   PUBLIC    CODE     ---       Line_Grid5
      00FF1E60H   PUBLIC    CODE     ---       HZ_12x12s
      00FF19BBH   PUBLIC    CODE     ---       printf_text
L251 LINKER/LOCATER V4.66.93.0                                                        07/20/2022  18:50:16  PAGE 13


      00FF248EH   PUBLIC    CODE     ---       LCD_delay
      00FF0D97H   PUBLIC    CODE     ---       LCD_Init
      00FF1CF5H   PUBLIC    CODE     ---       LCD_Fill_XY
      00FF1D7FH   PUBLIC    CODE     ---       Line_h
      00FF20AAH   PUBLIC    CODE     ---       LCD_SetWindows
      00FF1A68H   PUBLIC    CODE     ---       DMA_printf_text16
      00FF1606H   PUBLIC    CODE     ---       Line_Grid25
      00FF24E2H   PUBLIC    CODE     ---       LCD_RegWriteData
      00FF153BH   PUBLIC    CODE     ---       DMA_text_ascii_8x16
      00FF001EH   PUBLIC    CODE     ---       Line_v
      00FF2383H   PUBLIC    CODE     ---       Write_7dots
      00FF2327H   PUBLIC    CODE     ---       Write_8dots
      00FF24BAH   PUBLIC    CODE     ---       LCD_RegWriteComd
      00FF22F1H   PUBLIC    CODE     ---       SetView_H
      00FF16CBH   PUBLIC    CODE     ---       DMA_HZ_16x16
      00010FA8H   PUBLIC    XDATA    ---       DMA_tmp
      00FF2501H   PUBLIC    HCONST   ---       ASCII_8x16_H
      00FF2B01H   PUBLIC    HCONST   ---       HZK_16
      00FF2F21H   PUBLIC    HCONST   ---       ASCII5x7
      00FF3389H   PUBLIC    HCONST   ---       HZK12
      00FF34DFH   PUBLIC    HCONST   ---       HZK16
      00FF3522H   PUBLIC    HCONST   ---       HZK
      00000014H   PUBLIC    EDATA    WORD      background
      00000016H   PUBLIC    EDATA    WORD      foreground
      00000000H   PUBLIC    EDATA    BYTE      ?LCD_Fill_XY?BYTE
      00000004H   PUBLIC    EDATA    BYTE      ?Rectangle?BYTE
      000000D0H   SFRSYM    DATA     BYTE      PSW
      000000C0H.2 SFRSYM    DATA     BIT       LCD_WR
      000000C0H.5 SFRSYM    DATA     BIT       LCD_RS
      000000A0H   SFRSYM    DATA     BYTE      LCD_BUS_L
      000000C0H.3 SFRSYM    DATA     BIT       LCD_CS
      000000E0H   SFRSYM    DATA     BYTE      ACC
      000000E8H   SFRSYM    DATA     BYTE      LCD_BUS_H
      000000F0H   SFRSYM    DATA     BYTE      B
      00000088H   SFRSYM    DATA     BYTE      TCON
      00000098H   SFRSYM    DATA     BYTE      SCON
      000000C0H.1 SFRSYM    DATA     BIT       LCD_RST
      000000B8H   SFRSYM    DATA     BYTE      IP
      000000A8H   SFRSYM    DATA     BYTE      IE
      000000BAH   SFRSYM    DATA     BYTE      P_SW2
      000000F8H   SFRSYM    DATA     BYTE      P7
      000000E8H   SFRSYM    DATA     BYTE      P6
      000000C8H   SFRSYM    DATA     BYTE      P5
      000000CBH   SFRSYM    DATA     BYTE      P6M1
      000000C0H   SFRSYM    DATA     BYTE      P4
      000000CCH   SFRSYM    DATA     BYTE      P6M0
      000000B0H   SFRSYM    DATA     BYTE      P3
      000000B3H   SFRSYM    DATA     BYTE      P4M1
      000000A0H   SFRSYM    DATA     BYTE      P2
      000000B4H   SFRSYM    DATA     BYTE      P4M0
      00000090H   SFRSYM    DATA     BYTE      P1
      00000095H   SFRSYM    DATA     BYTE      P2M1
      00000080H   SFRSYM    DATA     BYTE      P0
      00000096H   SFRSYM    DATA     BYTE      P2M0

      00FF248EH   BLOCK     CODE     ---       LVL=0
      WR4         REGSYM    ---      WORD      ms
      00FF2490H   BLOCK     CODE     NEAR LAB  LVL=1
      WR6         REGSYM    ---      WORD      i
      ---         BLOCKEND  ---      ---       LVL=1
      00FF248EH   LINE      CODE     ---       #59
      00FF2490H   LINE      CODE     ---       #60
      00FF2490H   LINE      CODE     ---       #62
      00FF2490H   LINE      CODE     ---       #66
      00FF2494H   LINE      CODE     ---       #67
L251 LINKER/LOCATER V4.66.93.0                                                        07/20/2022  18:50:16  PAGE 14


      00FF249CH   LINE      CODE     ---       #68
      00FF24A4H   LINE      CODE     ---       #69
      ---         BLOCKEND  ---      ---       LVL=0

      00FF24BAH   BLOCK     CODE     ---       LVL=0
      R11         REGSYM    ---      BYTE      cmd
      00FF24BAH   LINE      CODE     ---       #81
      00FF24BAH   LINE      CODE     ---       #83
      00FF24BCH   LINE      CODE     ---       #84
      00FF24BEH   LINE      CODE     ---       #85
      00FF24C1H   LINE      CODE     ---       #86
      00FF24C4H   LINE      CODE     ---       #87
      00FF24CAH   LINE      CODE     ---       #88
      00FF24CCH   LINE      CODE     ---       #89
      00FF24CEH   LINE      CODE     ---       #90
      ---         BLOCKEND  ---      ---       LVL=0

      00FF24E2H   BLOCK     CODE     ---       LVL=0
      R11         REGSYM    ---      BYTE      dat
      00FF24E2H   LINE      CODE     ---       #93
      00FF24E2H   LINE      CODE     ---       #96
      00FF24E4H   LINE      CODE     ---       #97
      00FF24E7H   LINE      CODE     ---       #98
      00FF24EAH   LINE      CODE     ---       #99
      00FF24F0H   LINE      CODE     ---       #100
      00FF24F2H   LINE      CODE     ---       #101
      ---         BLOCKEND  ---      ---       LVL=0

      00FF0D97H   BLOCK     CODE     ---       LVL=0
      00FF0D97H   LINE      CODE     ---       #112
      00FF0D97H   LINE      CODE     ---       #114
      00FF0D9DH   LINE      CODE     ---       #115
      00FF0DA3H   LINE      CODE     ---       #116
      00FF0DA9H   LINE      CODE     ---       #118
      00FF0DAFH   LINE      CODE     ---       #119
      00FF0DB7H   LINE      CODE     ---       #121
      00FF0DB9H   LINE      CODE     ---       #122
      00FF0DBBH   LINE      CODE     ---       #123
      00FF0DBEH   LINE      CODE     ---       #124
      00FF0DC1H   LINE      CODE     ---       #125
      00FF0DC3H   LINE      CODE     ---       #127
      00FF0DC5H   LINE      CODE     ---       #128
      00FF0DCCH   LINE      CODE     ---       #129
      00FF0DCEH   LINE      CODE     ---       #130
      00FF0DD5H   LINE      CODE     ---       #131
      00FF0DD7H   LINE      CODE     ---       #132
      00FF0DDEH   LINE      CODE     ---       #135
      00FF0DE3H   LINE      CODE     ---       #136
      00FF0DEAH   LINE      CODE     ---       #137
      00FF0DEFH   LINE      CODE     ---       #138
      00FF0DF4H   LINE      CODE     ---       #139
      00FF0DF9H   LINE      CODE     ---       #140
      00FF0DFEH   LINE      CODE     ---       #142
      00FF0E03H   LINE      CODE     ---       #143
      00FF0E07H   LINE      CODE     ---       #144
      00FF0E0CH   LINE      CODE     ---       #145
      00FF0E11H   LINE      CODE     ---       #147
      00FF0E16H   LINE      CODE     ---       #148
      00FF0E1BH   LINE      CODE     ---       #149
      00FF0E20H   LINE      CODE     ---       #151
      00FF0E25H   LINE      CODE     ---       #152
      00FF0E2AH   LINE      CODE     ---       #153
      00FF0E2FH   LINE      CODE     ---       #154
      00FF0E33H   LINE      CODE     ---       #155
      00FF0E38H   LINE      CODE     ---       #156
L251 LINKER/LOCATER V4.66.93.0                                                        07/20/2022  18:50:16  PAGE 15


      00FF0E3DH   LINE      CODE     ---       #158
      00FF0E42H   LINE      CODE     ---       #159
      00FF0E47H   LINE      CODE     ---       #161
      00FF0E4CH   LINE      CODE     ---       #162
      00FF0E50H   LINE      CODE     ---       #163
      00FF0E55H   LINE      CODE     ---       #164
      00FF0E5AH   LINE      CODE     ---       #165
      00FF0E5FH   LINE      CODE     ---       #166
      00FF0E64H   LINE      CODE     ---       #167
      00FF0E69H   LINE      CODE     ---       #168
      00FF0E6EH   LINE      CODE     ---       #169
      00FF0E73H   LINE      CODE     ---       #170
      00FF0E78H   LINE      CODE     ---       #171
      00FF0E7DH   LINE      CODE     ---       #172
      00FF0E82H   LINE      CODE     ---       #173
      00FF0E86H   LINE      CODE     ---       #175
      00FF0E8BH   LINE      CODE     ---       #177
      00FF0E90H   LINE      CODE     ---       #183
      00FF0E95H   LINE      CODE     ---       #184
      00FF0E9AH   LINE      CODE     ---       #186
      00FF0E9FH   LINE      CODE     ---       #187
      00FF0EA3H   LINE      CODE     ---       #188
      00FF0EA6H   LINE      CODE     ---       #191
      00FF0EABH   LINE      CODE     ---       #192
      00FF0EB0H   LINE      CODE     ---       #194
      00FF0EB5H   LINE      CODE     ---       #195
      00FF0EB9H   LINE      CODE     ---       #196
      00FF0EBCH   LINE      CODE     ---       #199
      00FF0EC1H   LINE      CODE     ---       #200
      00FF0EC6H   LINE      CODE     ---       #202
      00FF0ECDH   LINE      CODE     ---       #204
      00FF0ED2H   LINE      CODE     ---       #205
      00FF0ED7H   LINE      CODE     ---       #208
      00FF0EDAH   LINE      CODE     ---       #209
      00FF0EE1H   LINE      CODE     ---       #210
      ---         BLOCKEND  ---      ---       LVL=0

      00FF20AAH   BLOCK     CODE     ---       LVL=0
      0000000FH   SYMBOL    EDATA    WORD      xStar
      00000011H   SYMBOL    EDATA    WORD      yStar
      WR12        REGSYM    ---      WORD      xEnd
      WR14        REGSYM    ---      WORD      yEnd
      00FF20AAH   LINE      CODE     ---       #221
      00FF20B4H   LINE      CODE     ---       #223
      00FF20B9H   LINE      CODE     ---       #224
      00FF20C2H   LINE      CODE     ---       #225
      00FF20C9H   LINE      CODE     ---       #226
      00FF20CEH   LINE      CODE     ---       #227
      00FF20D3H   LINE      CODE     ---       #229
      00FF20D8H   LINE      CODE     ---       #230
      00FF20E1H   LINE      CODE     ---       #231
      00FF20E8H   LINE      CODE     ---       #232
      00FF20EDH   LINE      CODE     ---       #233
      00FF20F2H   LINE      CODE     ---       #235
      00FF20F7H   LINE      CODE     ---       #236
      ---         BLOCKEND  ---      ---       LVL=0

      00FF1CF5H   BLOCK     CODE     ---       LVL=0
      WR0         REGSYM    ---      WORD      x0
      WR10        REGSYM    ---      WORD      y0
      WR14        REGSYM    ---      WORD      x
      WR12        REGSYM    ---      WORD      y
      00000008H   SYMBOL    EDATA    WORD      color
      00FF1CFBH   BLOCK     CODE     NEAR LAB  LVL=1
      R7          REGSYM    ---      BYTE      i
L251 LINKER/LOCATER V4.66.93.0                                                        07/20/2022  18:50:16  PAGE 16


      ---         BLOCKEND  ---      ---       LVL=1
      00FF1CF5H   LINE      CODE     ---       #245
      00FF1CFBH   LINE      CODE     ---       #246
      00FF1CFBH   LINE      CODE     ---       #249
      00FF1D06H   LINE      CODE     ---       #250
      00FF1D0AH   LINE      CODE     ---       #251
      00FF1D12H   LINE      CODE     ---       #252
      00FF1D16H   LINE      CODE     ---       #254
      00FF1D20H   LINE      CODE     ---       #255
      00FF1D22H   LINE      CODE     ---       #257
      00FF1D28H   LINE      CODE     ---       #258
      00FF1D2AH   LINE      CODE     ---       #259
      00FF1D2EH   LINE      CODE     ---       #260
      00FF1D42H   LINE      CODE     ---       #261
      00FF1D44H   LINE      CODE     ---       #263
      00FF1D4AH   LINE      CODE     ---       #264
      00FF1D50H   LINE      CODE     ---       #265
      00FF1D56H   LINE      CODE     ---       #266
      00FF1D5CH   LINE      CODE     ---       #267
      00FF1D62H   LINE      CODE     ---       #268
      00FF1D68H   LINE      CODE     ---       #269
      00FF1D6EH   LINE      CODE     ---       #270
      00FF1D74H   LINE      CODE     ---       #271
      00FF1D76H   LINE      CODE     ---       #272
      00FF1D7AH   LINE      CODE     ---       #273
      00FF1D7CH   LINE      CODE     ---       #275
      ---         BLOCKEND  ---      ---       LVL=0

      00FF1DF0H   BLOCK     CODE     ---       LVL=0
      WR2         REGSYM    ---      WORD      x
      WR0         REGSYM    ---      WORD      y
      R15         REGSYM    ---      BYTE      index
      00FF1DF8H   BLOCK     CODE     NEAR LAB  LVL=1
      REG=1       REGSYM    ---      ---       p
      R10         REGSYM    ---      BYTE      i
      R2          REGSYM    ---      BYTE      s
      R3          REGSYM    ---      BYTE      b
      ---         BLOCKEND  ---      ---       LVL=1
      00FF1DF0H   LINE      CODE     ---       #280
      00FF1DF8H   LINE      CODE     ---       #281
      00FF1DF8H   LINE      CODE     ---       #285
      00FF1DFEH   LINE      CODE     ---       #286
      00FF1E04H   LINE      CODE     ---       #288
      00FF1E11H   LINE      CODE     ---       #289
      00FF1E15H   LINE      CODE     ---       #291
      00FF1E27H   LINE      CODE     ---       #292
      00FF1E2AH   LINE      CODE     ---       #294
      00FF1E2FH   LINE      CODE     ---       #295
      00FF1E31H   LINE      CODE     ---       #297
      00FF1E3CH   LINE      CODE     ---       #298
      00FF1E4FH   LINE      CODE     ---       #299
      00FF1E51H   LINE      CODE     ---       #300
      00FF1E57H   LINE      CODE     ---       #301
      00FF1E5BH   LINE      CODE     ---       #302
      00FF1E5DH   LINE      CODE     ---       #303
      ---         BLOCKEND  ---      ---       LVL=0

      00FF1E60H   BLOCK     CODE     ---       LVL=0
      WR2         REGSYM    ---      WORD      x
      WR0         REGSYM    ---      WORD      y
      WR14        REGSYM    ---      WORD      hz_code
      00FF1E68H   BLOCK     CODE     NEAR LAB  LVL=1
      REG=1       REGSYM    ---      ---       p
      R10         REGSYM    ---      BYTE      i
      R2          REGSYM    ---      BYTE      s
L251 LINKER/LOCATER V4.66.93.0                                                        07/20/2022  18:50:16  PAGE 17


      R3          REGSYM    ---      BYTE      b
      ---         BLOCKEND  ---      ---       LVL=1
      00FF1E60H   LINE      CODE     ---       #313
      00FF1E68H   LINE      CODE     ---       #314
      00FF1E68H   LINE      CODE     ---       #318
      00FF1E6EH   LINE      CODE     ---       #319
      00FF1E74H   LINE      CODE     ---       #321
      00FF1E83H   LINE      CODE     ---       #322
      00FF1E87H   LINE      CODE     ---       #324
      00FF1E95H   LINE      CODE     ---       #325
      00FF1E98H   LINE      CODE     ---       #327
      00FF1E9DH   LINE      CODE     ---       #328
      00FF1E9FH   LINE      CODE     ---       #330
      00FF1EAAH   LINE      CODE     ---       #331
      00FF1EBDH   LINE      CODE     ---       #332
      00FF1EBFH   LINE      CODE     ---       #333
      00FF1EC5H   LINE      CODE     ---       #334
      00FF1EC9H   LINE      CODE     ---       #335
      00FF1ECBH   LINE      CODE     ---       #336
      ---         BLOCKEND  ---      ---       LVL=0

      00FF19BBH   BLOCK     CODE     ---       LVL=0
      00000008H   SYMBOL    EDATA    WORD      x
      0000000AH   SYMBOL    EDATA    WORD      y
      REG=3       REGSYM    ---      ---       ptr
      00FF19C5H   BLOCK     CODE     NEAR LAB  LVL=1
      0000000CH   SYMBOL    EDATA    BYTE      c1
      0000000DH   SYMBOL    EDATA    BYTE      c2
      0000000EH   SYMBOL    EDATA    BYTE      i
      ---         BLOCKEND  ---      ---       LVL=1
      00FF19BBH   LINE      CODE     ---       #339
      00FF19C5H   LINE      CODE     ---       #340
      00FF19C5H   LINE      CODE     ---       #343
      00FF19C5H   LINE      CODE     ---       #345
      00FF19CCH   LINE      CODE     ---       #346
      00FF19CEH   LINE      CODE     ---       #347
      00FF19D7H   LINE      CODE     ---       #348
      00FF19DCH   LINE      CODE     ---       #350
      00FF19E9H   LINE      CODE     ---       #351
      00FF19F5H   LINE      CODE     ---       #352
      00FF19F7H   LINE      CODE     ---       #355
      00FF19FEH   LINE      CODE     ---       #356
      00FF1A00H   LINE      CODE     ---       #357
      00FF1A06H   LINE      CODE     ---       #359
      00FF1A0BH   LINE      CODE     ---       #361
      00FF1A39H   LINE      CODE     ---       #363
      00FF1A4AH   LINE      CODE     ---       #364
      00FF1A56H   LINE      CODE     ---       #365
      00FF1A62H   LINE      CODE     ---       #367
      00FF1A62H   LINE      CODE     ---       #368
      00FF1A65H   LINE      CODE     ---       #369
      ---         BLOCKEND  ---      ---       LVL=0

      00FF1D7FH   BLOCK     CODE     ---       LVL=0
      WR10        REGSYM    ---      WORD      x
      WR0         REGSYM    ---      WORD      y
      WR14        REGSYM    ---      WORD      lenth
      WR12        REGSYM    ---      WORD      color
      00FF1D87H   BLOCK     CODE     NEAR LAB  LVL=1
      R7          REGSYM    ---      BYTE      i
      ---         BLOCKEND  ---      ---       LVL=1
      00FF1D7FH   LINE      CODE     ---       #379
      00FF1D87H   LINE      CODE     ---       #380
      00FF1D87H   LINE      CODE     ---       #383
      00FF1D8EH   LINE      CODE     ---       #384
L251 LINKER/LOCATER V4.66.93.0                                                        07/20/2022  18:50:16  PAGE 18


      00FF1D90H   LINE      CODE     ---       #385
      00FF1D94H   LINE      CODE     ---       #386
      00FF1D98H   LINE      CODE     ---       #388
      00FF1D9DH   LINE      CODE     ---       #389
      00FF1D9FH   LINE      CODE     ---       #391
      00FF1DA5H   LINE      CODE     ---       #392
      00FF1DA7H   LINE      CODE     ---       #393
      00FF1DABH   LINE      CODE     ---       #394
      00FF1DB3H   LINE      CODE     ---       #395
      00FF1DB5H   LINE      CODE     ---       #397
      00FF1DBBH   LINE      CODE     ---       #398
      00FF1DC1H   LINE      CODE     ---       #399
      00FF1DC7H   LINE      CODE     ---       #400
      00FF1DCDH   LINE      CODE     ---       #401
      00FF1DD3H   LINE      CODE     ---       #402
      00FF1DD9H   LINE      CODE     ---       #403
      00FF1DDFH   LINE      CODE     ---       #404
      00FF1DE5H   LINE      CODE     ---       #405
      00FF1DE7H   LINE      CODE     ---       #406
      00FF1DEBH   LINE      CODE     ---       #407
      00FF1DEDH   LINE      CODE     ---       #408
      ---         BLOCKEND  ---      ---       LVL=0

      00FF001EH   BLOCK     CODE     ---       LVL=0
      WR6         REGSYM    ---      WORD      x
      WR10        REGSYM    ---      WORD      y
      WR14        REGSYM    ---      WORD      lenth
      WR12        REGSYM    ---      WORD      color
      00FF0024H   BLOCK     CODE     NEAR LAB  LVL=1
      R7          REGSYM    ---      BYTE      i
      ---         BLOCKEND  ---      ---       LVL=1
      00FF001EH   LINE      CODE     ---       #418
      00FF0024H   LINE      CODE     ---       #419
      00FF0024H   LINE      CODE     ---       #422
      00FF002FH   LINE      CODE     ---       #423
      00FF0031H   LINE      CODE     ---       #424
      00FF0035H   LINE      CODE     ---       #425
      00FF0039H   LINE      CODE     ---       #427
      00FF003EH   LINE      CODE     ---       #428
      00FF0040H   LINE      CODE     ---       #430
      00FF0046H   LINE      CODE     ---       #431
      00FF0048H   LINE      CODE     ---       #432
      00FF004CH   LINE      CODE     ---       #433
      00FF0054H   LINE      CODE     ---       #434
      00FF0056H   LINE      CODE     ---       #436
      00FF005CH   LINE      CODE     ---       #437
      00FF0062H   LINE      CODE     ---       #438
      00FF0068H   LINE      CODE     ---       #439
      00FF006EH   LINE      CODE     ---       #440
      00FF0074H   LINE      CODE     ---       #441
      00FF007AH   LINE      CODE     ---       #442
      00FF0080H   LINE      CODE     ---       #443
      00FF0086H   LINE      CODE     ---       #444
      00FF0088H   LINE      CODE     ---       #445
      00FF008CH   LINE      CODE     ---       #446
      00FF008EH   LINE      CODE     ---       #447
      ---         BLOCKEND  ---      ---       LVL=0

      00FF2055H   BLOCK     CODE     ---       LVL=0
      WR12        REGSYM    ---      WORD      x0
      WR14        REGSYM    ---      WORD      y0
      00000008H   SYMBOL    EDATA    WORD      x
      0000000AH   SYMBOL    EDATA    WORD      y
      0000000CH   SYMBOL    EDATA    WORD      color
      00FF2055H   LINE      CODE     ---       #457
L251 LINKER/LOCATER V4.66.93.0                                                        07/20/2022  18:50:16  PAGE 19


      00FF2063H   LINE      CODE     ---       #459
      00FF206EH   LINE      CODE     ---       #460
      00FF2083H   LINE      CODE     ---       #461
      00FF2092H   LINE      CODE     ---       #462
      00FF20A7H   LINE      CODE     ---       #463
      ---         BLOCKEND  ---      ---       LVL=0

      00FF22F1H   BLOCK     CODE     ---       LVL=0
      00FF22F1H   LINE      CODE     ---       #465
      00FF22F1H   LINE      CODE     ---       #467
      00FF22F6H   LINE      CODE     ---       #469
      00FF22FBH   LINE      CODE     ---       #471
      00FF2300H   LINE      CODE     ---       #472
      00FF2304H   LINE      CODE     ---       #473
      00FF2307H   LINE      CODE     ---       #474
      00FF230CH   LINE      CODE     ---       #475
      00FF2311H   LINE      CODE     ---       #477
      00FF2316H   LINE      CODE     ---       #478
      00FF231AH   LINE      CODE     ---       #479
      00FF231DH   LINE      CODE     ---       #480
      00FF2322H   LINE      CODE     ---       #481
      ---         BLOCKEND  ---      ---       LVL=0

      00FF22BBH   BLOCK     CODE     ---       LVL=0
      00FF22BBH   LINE      CODE     ---       #483
      00FF22BBH   LINE      CODE     ---       #485
      00FF22C0H   LINE      CODE     ---       #487
      00FF22C5H   LINE      CODE     ---       #489
      00FF22CAH   LINE      CODE     ---       #490
      00FF22CEH   LINE      CODE     ---       #491
      00FF22D1H   LINE      CODE     ---       #492
      00FF22D6H   LINE      CODE     ---       #493
      00FF22DBH   LINE      CODE     ---       #495
      00FF22E0H   LINE      CODE     ---       #496
      00FF22E4H   LINE      CODE     ---       #497
      00FF22E7H   LINE      CODE     ---       #498
      00FF22ECH   LINE      CODE     ---       #499
      ---         BLOCKEND  ---      ---       LVL=0

      00FF2417H   BLOCK     CODE     ---       LVL=0
      WR2         REGSYM    ---      WORD      x
      WR0         REGSYM    ---      WORD      y
      WR14        REGSYM    ---      WORD      color
      00FF2417H   LINE      CODE     ---       #503
      00FF241FH   LINE      CODE     ---       #505
      00FF2422H   LINE      CODE     ---       #506
      00FF2424H   LINE      CODE     ---       #507
      00FF2433H   LINE      CODE     ---       #508
      00FF2435H   LINE      CODE     ---       #509
      ---         BLOCKEND  ---      ---       LVL=0

      00FF2327H   BLOCK     CODE     ---       LVL=0
      00FF2327H   LINE      CODE     ---       #513
      00FF2327H   LINE      CODE     ---       #515
      00FF232DH   LINE      CODE     ---       #516
      00FF2333H   LINE      CODE     ---       #517
      00FF2339H   LINE      CODE     ---       #518
      00FF233FH   LINE      CODE     ---       #519
      00FF2345H   LINE      CODE     ---       #520
      00FF234BH   LINE      CODE     ---       #521
      00FF2351H   LINE      CODE     ---       #522
      00FF2357H   LINE      CODE     ---       #523
      ---         BLOCKEND  ---      ---       LVL=0

      00FF2383H   BLOCK     CODE     ---       LVL=0
L251 LINKER/LOCATER V4.66.93.0                                                        07/20/2022  18:50:16  PAGE 20


      00FF2383H   LINE      CODE     ---       #525
      00FF2383H   LINE      CODE     ---       #527
      00FF2389H   LINE      CODE     ---       #528
      00FF238FH   LINE      CODE     ---       #529
      00FF2395H   LINE      CODE     ---       #530
      00FF239BH   LINE      CODE     ---       #531
      00FF23A1H   LINE      CODE     ---       #532
      00FF23A7H   LINE      CODE     ---       #533
      00FF23ADH   LINE      CODE     ---       #534
      ---         BLOCKEND  ---      ---       LVL=0

      00FF1606H   BLOCK     CODE     ---       LVL=0
      WR2         REGSYM    ---      WORD      x
      WR0         REGSYM    ---      WORD      y
      WR14        REGSYM    ---      WORD      color
      00FF160EH   BLOCK     CODE     NEAR LAB  LVL=1
      R13         REGSYM    ---      BYTE      i
      ---         BLOCKEND  ---      ---       LVL=1
      00FF1606H   LINE      CODE     ---       #537
      00FF160EH   LINE      CODE     ---       #538
      00FF160EH   LINE      CODE     ---       #541
      00FF1615H   LINE      CODE     ---       #542
      00FF1617H   LINE      CODE     ---       #543
      00FF1619H   LINE      CODE     ---       #545
      00FF161CH   LINE      CODE     ---       #546
      00FF161FH   LINE      CODE     ---       #547
      00FF1622H   LINE      CODE     ---       #548
      00FF1625H   LINE      CODE     ---       #549
      00FF1628H   LINE      CODE     ---       #550
      00FF163AH   LINE      CODE     ---       #551
      00FF1641H   LINE      CODE     ---       #552
      00FF1644H   LINE      CODE     ---       #553
      00FF1647H   LINE      CODE     ---       #554
      00FF164AH   LINE      CODE     ---       #555
      00FF164DH   LINE      CODE     ---       #556
      00FF1650H   LINE      CODE     ---       #557
      00FF1653H   LINE      CODE     ---       #558
      00FF1657H   LINE      CODE     ---       #559
      00FF165DH   LINE      CODE     ---       #560
      00FF1663H   LINE      CODE     ---       #561
      00FF1669H   LINE      CODE     ---       #563
      00FF166CH   LINE      CODE     ---       #564
      00FF166FH   LINE      CODE     ---       #565
      00FF1672H   LINE      CODE     ---       #566
      00FF1675H   LINE      CODE     ---       #567
      00FF1678H   LINE      CODE     ---       #568
      00FF1684H   LINE      CODE     ---       #570
      00FF1686H   LINE      CODE     ---       #572
      00FF1689H   LINE      CODE     ---       #573
      00FF168CH   LINE      CODE     ---       #574
      00FF168FH   LINE      CODE     ---       #575
      00FF1692H   LINE      CODE     ---       #576
      00FF1695H   LINE      CODE     ---       #577
      00FF16A4H   LINE      CODE     ---       #578
      00FF16ABH   LINE      CODE     ---       #580
      00FF16AEH   LINE      CODE     ---       #581
      00FF16B1H   LINE      CODE     ---       #582
      00FF16B4H   LINE      CODE     ---       #583
      00FF16B7H   LINE      CODE     ---       #584
      00FF16BAH   LINE      CODE     ---       #585
      00FF16C0H   LINE      CODE     ---       #586
      00FF16C6H   LINE      CODE     ---       #587
      00FF16C8H   LINE      CODE     ---       #588
      ---         BLOCKEND  ---      ---       LVL=0

L251 LINKER/LOCATER V4.66.93.0                                                        07/20/2022  18:50:16  PAGE 21


      00FF104BH   BLOCK     CODE     ---       LVL=0
      WR2         REGSYM    ---      WORD      x
      WR0         REGSYM    ---      WORD      y
      WR14        REGSYM    ---      WORD      color
      00FF1053H   BLOCK     CODE     NEAR LAB  LVL=1
      R10         REGSYM    ---      BYTE      i
      ---         BLOCKEND  ---      ---       LVL=1
      00FF104BH   LINE      CODE     ---       #591
      00FF1053H   LINE      CODE     ---       #592
      00FF1053H   LINE      CODE     ---       #595
      00FF105AH   LINE      CODE     ---       #596
      00FF105CH   LINE      CODE     ---       #597
      00FF105EH   LINE      CODE     ---       #599
      00FF1061H   LINE      CODE     ---       #600
      00FF1064H   LINE      CODE     ---       #601
      00FF106AH   LINE      CODE     ---       #602
      00FF1070H   LINE      CODE     ---       #603
      00FF1076H   LINE      CODE     ---       #604
      00FF107CH   LINE      CODE     ---       #605
      00FF108FH   LINE      CODE     ---       #606
      00FF1097H   LINE      CODE     ---       #607
      00FF109AH   LINE      CODE     ---       #608
      00FF109DH   LINE      CODE     ---       #609
      00FF10A3H   LINE      CODE     ---       #610
      00FF10A9H   LINE      CODE     ---       #611
      00FF10AFH   LINE      CODE     ---       #612
      00FF10B2H   LINE      CODE     ---       #613
      00FF10B5H   LINE      CODE     ---       #614
      00FF10BBH   LINE      CODE     ---       #615
      00FF10C1H   LINE      CODE     ---       #616
      00FF10C7H   LINE      CODE     ---       #618
      00FF10CAH   LINE      CODE     ---       #619
      00FF10CDH   LINE      CODE     ---       #620
      00FF10D3H   LINE      CODE     ---       #621
      00FF10D9H   LINE      CODE     ---       #622
      00FF10DFH   LINE      CODE     ---       #623
      00FF10ECH   LINE      CODE     ---       #625
      00FF10EFH   LINE      CODE     ---       #627
      00FF10F2H   LINE      CODE     ---       #628
      00FF10F5H   LINE      CODE     ---       #629
      00FF10FBH   LINE      CODE     ---       #630
      00FF1101H   LINE      CODE     ---       #631
      00FF1107H   LINE      CODE     ---       #632
      00FF110DH   LINE      CODE     ---       #633
      00FF111CH   LINE      CODE     ---       #634
      00FF1124H   LINE      CODE     ---       #635
      00FF1127H   LINE      CODE     ---       #636
      00FF112AH   LINE      CODE     ---       #637
      00FF1130H   LINE      CODE     ---       #638
      00FF1136H   LINE      CODE     ---       #639
      00FF113CH   LINE      CODE     ---       #640
      00FF1142H   LINE      CODE     ---       #641
      00FF1148H   LINE      CODE     ---       #642
      00FF114EH   LINE      CODE     ---       #643
      00FF1150H   LINE      CODE     ---       #644
      ---         BLOCKEND  ---      ---       LVL=0

      00FF153BH   BLOCK     CODE     ---       LVL=0
      WR2         REGSYM    ---      WORD      x
      WR0         REGSYM    ---      WORD      y
      R11         REGSYM    ---      BYTE      index
      00FF1541H   BLOCK     CODE     NEAR LAB  LVL=1
      REG=1       REGSYM    ---      ---       p
      R10         REGSYM    ---      BYTE      i
      R14         REGSYM    ---      BYTE      s
L251 LINKER/LOCATER V4.66.93.0                                                        07/20/2022  18:50:16  PAGE 22


      R15         REGSYM    ---      BYTE      b
      WR8         REGSYM    ---      WORD      j
      ---         BLOCKEND  ---      ---       LVL=1
      00FF153BH   LINE      CODE     ---       #651
      00FF1541H   LINE      CODE     ---       #652
      00FF1541H   LINE      CODE     ---       #657
      00FF154AH   LINE      CODE     ---       #658
      00FF1553H   LINE      CODE     ---       #659
      00FF155BH   LINE      CODE     ---       #661
      00FF1572H   LINE      CODE     ---       #662
      00FF1577H   LINE      CODE     ---       #664
      00FF157CH   LINE      CODE     ---       #665
      00FF157EH   LINE      CODE     ---       #667
      00FF1589H   LINE      CODE     ---       #668
      00FF159EH   LINE      CODE     ---       #669
      00FF15A0H   LINE      CODE     ---       #670
      00FF15A2H   LINE      CODE     ---       #671
      00FF15A9H   LINE      CODE     ---       #672
      00FF15ADH   LINE      CODE     ---       #673
      00FF15BCH   LINE      CODE     ---       #674
      00FF15C0H   LINE      CODE     ---       #675
      00FF15CDH   LINE      CODE     ---       #676
      00FF15D5H   LINE      CODE     ---       #677
      00FF15E0H   LINE      CODE     ---       #678
      00FF15E9H   LINE      CODE     ---       #679
      00FF15FAH   LINE      CODE     ---       #680
      00FF15FEH   LINE      CODE     ---       #681
      00FF1601H   LINE      CODE     ---       #682
      00FF1603H   LINE      CODE     ---       #683
      ---         BLOCKEND  ---      ---       LVL=0

      00FF16CBH   BLOCK     CODE     ---       LVL=0
      WR2         REGSYM    ---      WORD      x
      WR0         REGSYM    ---      WORD      y
      WR10        REGSYM    ---      WORD      hz_code
      00FF16D3H   BLOCK     CODE     NEAR LAB  LVL=1
      REG=1       REGSYM    ---      ---       p
      R10         REGSYM    ---      BYTE      i
      R14         REGSYM    ---      BYTE      s
      R15         REGSYM    ---      BYTE      b
      WR8         REGSYM    ---      WORD      j
      ---         BLOCKEND  ---      ---       LVL=1
      00FF16CBH   LINE      CODE     ---       #694
      00FF16D3H   LINE      CODE     ---       #695
      00FF16D3H   LINE      CODE     ---       #700
      00FF16DCH   LINE      CODE     ---       #701
      00FF16E5H   LINE      CODE     ---       #703
      00FF16F8H   LINE      CODE     ---       #704
      00FF16FDH   LINE      CODE     ---       #706
      00FF1702H   LINE      CODE     ---       #707
      00FF1704H   LINE      CODE     ---       #709
      00FF170FH   LINE      CODE     ---       #710
      00FF1724H   LINE      CODE     ---       #711
      00FF1726H   LINE      CODE     ---       #712
      00FF1728H   LINE      CODE     ---       #713
      00FF172FH   LINE      CODE     ---       #714
      00FF1733H   LINE      CODE     ---       #715
      00FF1742H   LINE      CODE     ---       #716
      00FF1746H   LINE      CODE     ---       #717
      00FF1753H   LINE      CODE     ---       #718
      00FF175BH   LINE      CODE     ---       #719
      00FF1766H   LINE      CODE     ---       #720
      00FF176FH   LINE      CODE     ---       #721
      00FF1780H   LINE      CODE     ---       #722
      00FF1784H   LINE      CODE     ---       #723
L251 LINKER/LOCATER V4.66.93.0                                                        07/20/2022  18:50:16  PAGE 23


      00FF1787H   LINE      CODE     ---       #724
      00FF1789H   LINE      CODE     ---       #725
      ---         BLOCKEND  ---      ---       LVL=0

      00FF1A68H   BLOCK     CODE     ---       LVL=0
      00000008H   SYMBOL    EDATA    WORD      x
      0000000AH   SYMBOL    EDATA    WORD      y
      REG=3       REGSYM    ---      ---       ptr
      00FF1A72H   BLOCK     CODE     NEAR LAB  LVL=1
      0000000CH   SYMBOL    EDATA    BYTE      c1
      0000000DH   SYMBOL    EDATA    BYTE      c2
      0000000EH   SYMBOL    EDATA    BYTE      i
      ---         BLOCKEND  ---      ---       LVL=1
      00FF1A68H   LINE      CODE     ---       #728
      00FF1A72H   LINE      CODE     ---       #729
      00FF1A72H   LINE      CODE     ---       #732
      00FF1A72H   LINE      CODE     ---       #734
      00FF1A79H   LINE      CODE     ---       #735
      00FF1A7BH   LINE      CODE     ---       #736
      00FF1A84H   LINE      CODE     ---       #737
      00FF1A89H   LINE      CODE     ---       #739
      00FF1A96H   LINE      CODE     ---       #740
      00FF1AA2H   LINE      CODE     ---       #741
      00FF1AA4H   LINE      CODE     ---       #744
      00FF1AABH   LINE      CODE     ---       #745
      00FF1AADH   LINE      CODE     ---       #746
      00FF1AB3H   LINE      CODE     ---       #748
      00FF1AB8H   LINE      CODE     ---       #750
      00FF1AE6H   LINE      CODE     ---       #752
      00FF1AF7H   LINE      CODE     ---       #753
      00FF1B03H   LINE      CODE     ---       #754
      00FF1B0FH   LINE      CODE     ---       #756
      00FF1B0FH   LINE      CODE     ---       #757
      00FF1B12H   LINE      CODE     ---       #758
      ---         BLOCKEND  ---      ---       LVL=0

      00FF2358H   BLOCK     CODE     ---       LVL=0
      00FF2358H   LINE      CODE     ---       #768
      00FF2358H   LINE      CODE     ---       #770
      00FF235BH   LINE      CODE     ---       #771
      00FF2368H   LINE      CODE     ---       #772
      00FF2371H   LINE      CODE     ---       #773
      00FF2379H   LINE      CODE     ---       #774
      00FF2382H   LINE      CODE     ---       #775
      ---         BLOCKEND  ---      ---       LVL=0

      00FF218FH   BLOCK     CODE     ---       LVL=0
      00FF218FH   LINE      CODE     ---       #784
      00FF218FH   LINE      CODE     ---       #786
      00FF2192H   LINE      CODE     ---       #787
      00FF219FH   LINE      CODE     ---       #788
      00FF21A8H   LINE      CODE     ---       #789
      00FF21B3H   LINE      CODE     ---       #790
      00FF21BAH   LINE      CODE     ---       #791
      00FF21C2H   LINE      CODE     ---       #792
      00FF21C9H   LINE      CODE     ---       #793
      00FF21D0H   LINE      CODE     ---       #794
      ---         BLOCKEND  ---      ---       LVL=0

      ---         MODULE    ---      ---       OSCOPE-V2-8bit
      00FF36BBH   PUBLIC    HCONST   ---       T_V_GAIN
      00FF36C9H   PUBLIC    HCONST   ---       StartTimeTable
      00FF36F3H   PUBLIC    HCONST   ---       T_SIN
      00FF3725H   PUBLIC    HCONST   ---       T_TimeScale
      00FF3731H   PUBLIC    HCONST   ---       SampleTimeTable
L251 LINKER/LOCATER V4.66.93.0                                                        07/20/2022  18:50:16  PAGE 24


      00FF375BH   PUBLIC    HCONST   ---       T_Time_div
      00FF1ECEH   PUBLIC    CODE     ---       ShowRunStop
      00FF2210H   PUBLIC    CODE     ---       Compare_Config
      00FF1FA5H   PUBLIC    CODE     ---       Timer3_ISR
      00FF009EH   PUBLIC    CODE     ---       Timer0_config
      00FF2438H   PUBLIC    CODE     ---       Timer1_config
      00FF1350H   PUBLIC    CODE     ---       PWMA_config
      00FF0BA9H   PUBLIC    CODE     ---       ShowOscope
      00FF184CH   PUBLIC    CODE     ---       PWMB_config
      00FF2284H   PUBLIC    CODE     ---       ShowPhase
      00FF1153H   PUBLIC    CODE     ---       RealShowOscope
      00FF2456H   PUBLIC    CODE     ---       ADC_config
      00FF1C65H   PUBLIC    CODE     ---       timer0_ISR
      00FF24F3H   PUBLIC    CODE     ---       timer1_ISR
      00FF1B15H   PUBLIC    CODE     ---       OSCOPE_inilize
      00FF144CH   PUBLIC    CODE     ---       SetSampleTime
      00FF00AEH   PUBLIC    CODE     ---       main
      00FF1253H   PUBLIC    CODE     ---       ReadKey
      00FF23D2H   PUBLIC    CODE     ---       CMP_ISR
      00FF190CH   PUBLIC    CODE     ---       ShowTimeBase
      00FF1BBFH   PUBLIC    CODE     ---       ShowTrigMode
      00FF0EF4H   PUBLIC    CODE     ---       ShowStartTime
      00FF20FAH   PUBLIC    CODE     ---       OscStop
      00FF224CH   PUBLIC    CODE     ---       INT1_ISR
      00FF1F3BH   PUBLIC    CODE     ---       Timer3_Config
      00FF23F5H   PUBLIC    CODE     ---       Timer4_Config
      00FF1FFFH   PUBLIC    CODE     ---       ShowVoltage
      00FF23AEH   PUBLIC    CODE     ---       AutoCheck
      00000022H   PUBLIC    EDATA    BYTE      WriteDelay
      00000023H   PUBLIC    EDATA    WORD      Shift
      00000025H   PUBLIC    EDATA    BYTE      SineIndex
      00000026H   PUBLIC    EDATA    BYTE      InputIndex
      00000027H   PUBLIC    EDATA    BYTE      TrigMode
      00000028H   PUBLIC    EDATA    BYTE      KeyCode
      00000029H   PUBLIC    EDATA    BYTE      adc
      0000002AH   PUBLIC    EDATA    ---       T_VOLTAGE10
      0000004AH   PUBLIC    EDATA    BYTE      AutoTime
      0000004BH   PUBLIC    EDATA    WORD      sample_cnt
      0000004DH   PUBLIC    EDATA    BYTE      KeyState
      0000004EH   PUBLIC    EDATA    WORD      LastDot
      00000050H   PUBLIC    EDATA    BYTE      cnt_8ms
      00000051H   PUBLIC    EDATA    ---       dot
      000001EBH   PUBLIC    EDATA    ---       tmp
      0000020BH   PUBLIC    EDATA    BYTE      AutoTimeCnt
      0000020CH   PUBLIC    EDATA    BYTE      Current_TimeBase
      0000020DH   PUBLIC    EDATA    BYTE      freq_H
      0000020EH   PUBLIC    EDATA    DWORD     frequency
      00000212H   PUBLIC    EDATA    BYTE      KeyHoldCnt
      00000213H   PUBLIC    EDATA    ---       adc_tmp
      000003ADH   PUBLIC    EDATA    BYTE      pwm1_voltage
      000003AEH   PUBLIC    EDATA    WORD      adc_rd
      000003B0H   PUBLIC    EDATA    BYTE      SampleIndex
      000003B1H   PUBLIC    EDATA    BYTE      cnt_32ms
      000003B2H   PUBLIC    EDATA    WORD      adc_wr
      000003B4H   PUBLIC    EDATA    WORD      SampleTime
      000003B6H   PUBLIC    EDATA    BYTE      TimeScaleIndex
      000003B7H   PUBLIC    EDATA    BYTE      TimeScale
      00000020H.0 PUBLIC    BIT      BIT       B_Sample_OK
      00000020H.1 PUBLIC    BIT      BIT       B_FrequencyOk
      00000020H.2 PUBLIC    BIT      BIT       B_Shift
      00000020H.3 PUBLIC    BIT      BIT       B_TrigPhase
      00000020H.4 PUBLIC    BIT      BIT       B_KeyRepeat
      00000020H.5 PUBLIC    BIT      BIT       B_8ms
      00000020H.6 PUBLIC    BIT      BIT       B_TrigMode
      00000020H.7 PUBLIC    BIT      BIT       B_Run
L251 LINKER/LOCATER V4.66.93.0                                                        07/20/2022  18:50:16  PAGE 25


      00000021H.0 PUBLIC    BIT      BIT       B_RUN_REQ
      00000021H.1 PUBLIC    BIT      BIT       B_32ms
      00000021H.2 PUBLIC    BIT      BIT       B_sample_ms
      00000021H.3 PUBLIC    BIT      BIT       B_ADC_Busy
      00010000H   PUBLIC    XDATA    ---       adc_sample
      00000094H   SFRSYM    DATA     BYTE      P0M0
      000000D0H   SFRSYM    DATA     BYTE      PSW
      000000F8H.0 SFRSYM    DATA     BIT       P_K_OK
      000000EAH   SFRSYM    DATA     BYTE      CKCON
      000000BEH   SFRSYM    DATA     BYTE      ADC_RESL
      000000DDH   SFRSYM    DATA     BYTE      T4T3M
      000000F8H.1 SFRSYM    DATA     BIT       P_K_RIGHT
      00000088H.6 SFRSYM    DATA     BIT       TR1
      00000088H.4 SFRSYM    DATA     BIT       TR0
      000000D3H   SFRSYM    DATA     BYTE      T4L
      000000B8H.1 SFRSYM    DATA     BIT       PT0
      000000D5H   SFRSYM    DATA     BYTE      T3L
      000000E9H   SFRSYM    DATA     BYTE      WTST
      0000008BH   SFRSYM    DATA     BYTE      TL1
      0000008AH   SFRSYM    DATA     BYTE      TL0
      000000D2H   SFRSYM    DATA     BYTE      T4H
      000000D4H   SFRSYM    DATA     BYTE      T3H
      00000088H.2 SFRSYM    DATA     BIT       IT1
      000000A8H.2 SFRSYM    DATA     BIT       EX1
      0000008DH   SFRSYM    DATA     BYTE      TH1
      0000008CH   SFRSYM    DATA     BYTE      TH0
      000000B5H   SFRSYM    DATA     BYTE      IP2
      000000A8H.3 SFRSYM    DATA     BIT       ET1
      000000A8H.1 SFRSYM    DATA     BIT       ET0
      000000E0H   SFRSYM    DATA     BYTE      ACC
      0000008EH   SFRSYM    DATA     BYTE      AUXR
      000000F0H   SFRSYM    DATA     BYTE      B
      000000AFH   SFRSYM    DATA     BYTE      IE2
      000000B0H.5 SFRSYM    DATA     BIT       P35
      000000B0H.3 SFRSYM    DATA     BIT       P33
      00000088H   SFRSYM    DATA     BYTE      TCON
      00000089H   SFRSYM    DATA     BYTE      TMOD
      00000098H   SFRSYM    DATA     BYTE      SCON
      000000BCH   SFRSYM    DATA     BYTE      ADC_CONTR
      000000E7H   SFRSYM    DATA     BYTE      CMPCR2
      000000C8H.3 SFRSYM    DATA     BIT       P_V_C
      000000E6H   SFRSYM    DATA     BYTE      CMPCR1
      00000080H.5 SFRSYM    DATA     BIT       P_V_B
      00000080H.6 SFRSYM    DATA     BIT       P_V_A
      000000DEH   SFRSYM    DATA     BYTE      ADCCFG
      000000B8H   SFRSYM    DATA     BYTE      IP
      000000F8H.3 SFRSYM    DATA     BIT       P_K_DOWN
      000000B6H   SFRSYM    DATA     BYTE      IP2H
      000000BDH   SFRSYM    DATA     BYTE      ADC_RES
      000000A8H   SFRSYM    DATA     BYTE      IE
      000000BAH   SFRSYM    DATA     BYTE      P_SW2
      000000F8H.2 SFRSYM    DATA     BIT       P_K_LEFT
      000000F8H   SFRSYM    DATA     BYTE      P7
      000000E1H   SFRSYM    DATA     BYTE      P7M1
      000000E8H   SFRSYM    DATA     BYTE      P6
      000000A8H.7 SFRSYM    DATA     BIT       EA
      000000C8H   SFRSYM    DATA     BYTE      P5
      000000CBH   SFRSYM    DATA     BYTE      P6M1
      000000E2H   SFRSYM    DATA     BYTE      P7M0
      000000C0H   SFRSYM    DATA     BYTE      P4
      000000C9H   SFRSYM    DATA     BYTE      P5M1
      000000CCH   SFRSYM    DATA     BYTE      P6M0
      000000B0H   SFRSYM    DATA     BYTE      P3
      000000B3H   SFRSYM    DATA     BYTE      P4M1
      000000CAH   SFRSYM    DATA     BYTE      P5M0
L251 LINKER/LOCATER V4.66.93.0                                                        07/20/2022  18:50:16  PAGE 26


      000000A0H   SFRSYM    DATA     BYTE      P2
      000000B1H   SFRSYM    DATA     BYTE      P3M1
      000000B4H   SFRSYM    DATA     BYTE      P4M0
      00000090H   SFRSYM    DATA     BYTE      P1
      00000095H   SFRSYM    DATA     BYTE      P2M1
      000000B2H   SFRSYM    DATA     BYTE      P3M0
      000000F8H.4 SFRSYM    DATA     BIT       P_K_UP
      00000080H   SFRSYM    DATA     BYTE      P0
      00000091H   SFRSYM    DATA     BYTE      P1M1
      00000096H   SFRSYM    DATA     BYTE      P2M0
      00000092H   SFRSYM    DATA     BYTE      P1M0
      00000093H   SFRSYM    DATA     BYTE      P0M1

      00FF00AEH   BLOCK     CODE     ---       LVL=0
      R15         REGSYM    ---      BYTE      i
      WR12        REGSYM    ---      WORD      j
      00FF00AEH   LINE      CODE     ---       #177
      00FF00AEH   LINE      CODE     ---       #178
      00FF00AEH   LINE      CODE     ---       #182
      00FF00B1H   LINE      CODE     ---       #183
      00FF00B4H   LINE      CODE     ---       #185
      00FF00BAH   LINE      CODE     ---       #186
      00FF00C0H   LINE      CODE     ---       #187
      00FF00C6H   LINE      CODE     ---       #188
      00FF00CCH   LINE      CODE     ---       #189
      00FF00D2H   LINE      CODE     ---       #190
      00FF00D8H   LINE      CODE     ---       #191
      00FF00DEH   LINE      CODE     ---       #192
      00FF00E4H   LINE      CODE     ---       #194
      00FF00E7H   LINE      CODE     ---       #201
      00FF00EDH   LINE      CODE     ---       #203
      00FF00EFH   LINE      CODE     ---       #204
      00FF00F1H   LINE      CODE     ---       #205
      00FF00F3H   LINE      CODE     ---       #206
      00FF00F5H   LINE      CODE     ---       #207
      00FF00F7H   LINE      CODE     ---       #208
      00FF00FBH   LINE      CODE     ---       #210
      00FF00FEH   LINE      CODE     ---       #211
      00FF0101H   LINE      CODE     ---       #212
      00FF0104H   LINE      CODE     ---       #213
      00FF0107H   LINE      CODE     ---       #214
      00FF010FH   LINE      CODE     ---       #215
      00FF0112H   LINE      CODE     ---       #216
      00FF0115H   LINE      CODE     ---       #217
      00FF0118H   LINE      CODE     ---       #218
      00FF011AH   LINE      CODE     ---       #220
      00FF011CH   LINE      CODE     ---       #221
      00FF011EH   LINE      CODE     ---       #223
      00FF0123H   LINE      CODE     ---       #224
      00FF012EH   LINE      CODE     ---       #225
      00FF0164H   LINE      CODE     ---       #227
      00FF0168H   LINE      CODE     ---       #228
      00FF0174H   LINE      CODE     ---       #229
      00FF017BH   LINE      CODE     ---       #230
      00FF017DH   LINE      CODE     ---       #231
      00FF0187H   LINE      CODE     ---       #232
      00FF0196H   LINE      CODE     ---       #233
      00FF01A5H   LINE      CODE     ---       #234
      00FF01B4H   LINE      CODE     ---       #235
      00FF01C3H   LINE      CODE     ---       #236
      00FF01D1H   LINE      CODE     ---       #237
      00FF01D2H   LINE      CODE     ---       #238
      00FF01D4H   LINE      CODE     ---       #241
      00FF01D6H   LINE      CODE     ---       #242
      00FF01DCH   LINE      CODE     ---       #243
L251 LINKER/LOCATER V4.66.93.0                                                        07/20/2022  18:50:16  PAGE 27


      00FF01E2H   LINE      CODE     ---       #244
      00FF01E8H   LINE      CODE     ---       #245
      00FF01EDH   LINE      CODE     ---       #246
      00FF01F3H   LINE      CODE     ---       #247
      00FF01F3H   LINE      CODE     ---       #248
      00FF0202H   LINE      CODE     ---       #250
      00FF0208H   LINE      CODE     ---       #251
      00FF0210H   LINE      CODE     ---       #253
      00FF0213H   LINE      CODE     ---       #255
      00FF0216H   LINE      CODE     ---       #256
      00FF0219H   LINE      CODE     ---       #257
      00FF021CH   LINE      CODE     ---       #258
      00FF022FH   LINE      CODE     ---       #259
      00FF0242H   LINE      CODE     ---       #260
      00FF0255H   LINE      CODE     ---       #261
      00FF0268H   LINE      CODE     ---       #262
      00FF027BH   LINE      CODE     ---       #263
      00FF028EH   LINE      CODE     ---       #264
      00FF02A1H   LINE      CODE     ---       #265
      00FF02B4H   LINE      CODE     ---       #266
      00FF02C7H   LINE      CODE     ---       #267
      00FF02D3H   LINE      CODE     ---       #269
      00FF02D7H   LINE      CODE     ---       #270
      00FF02D9H   LINE      CODE     ---       #272
      00FF02DCH   LINE      CODE     ---       #274
      00FF02DEH   LINE      CODE     ---       #275
      00FF02E1H   LINE      CODE     ---       #276
      00FF02E7H   LINE      CODE     ---       #278
      00FF02ECH   LINE      CODE     ---       #279
      00FF02FFH   LINE      CODE     ---       #281
      00FF0307H   LINE      CODE     ---       #283
      00FF031EH   LINE      CODE     ---       #287
      00FF0331H   LINE      CODE     ---       #291
      00FF034CH   LINE      CODE     ---       #292
      00FF0367H   LINE      CODE     ---       #293
      00FF0382H   LINE      CODE     ---       #295
      00FF0388H   LINE      CODE     ---       #297
      00FF038BH   LINE      CODE     ---       #298
      00FF038EH   LINE      CODE     ---       #300
      00FF0390H   LINE      CODE     ---       #301
      00FF0396H   LINE      CODE     ---       #302
      00FF0398H   LINE      CODE     ---       #303
      00FF039BH   LINE      CODE     ---       #304
      00FF039EH   LINE      CODE     ---       #305
      00FF03A1H   LINE      CODE     ---       #306
      00FF03A3H   LINE      CODE     ---       #307
      00FF03A6H   LINE      CODE     ---       #309
      00FF03A9H   LINE      CODE     ---       #311
      00FF03A9H   LINE      CODE     ---       #313
      00FF03ACH   LINE      CODE     ---       #315
      00FF03AEH   LINE      CODE     ---       #316
      00FF03B1H   LINE      CODE     ---       #317
      00FF03B1H   LINE      CODE     ---       #319
      00FF03B4H   LINE      CODE     ---       #321
      00FF03B6H   LINE      CODE     ---       #322
      00FF03B9H   LINE      CODE     ---       #323
      00FF03BFH   LINE      CODE     ---       #325
      00FF03C6H   LINE      CODE     ---       #327
      00FF03CEH   LINE      CODE     ---       #328
      00FF03D6H   LINE      CODE     ---       #329
      00FF03DEH   LINE      CODE     ---       #330
      00FF03E6H   LINE      CODE     ---       #331
      00FF03F3H   LINE      CODE     ---       #332
      00FF0409H   LINE      CODE     ---       #333
      00FF040EH   LINE      CODE     ---       #334
L251 LINKER/LOCATER V4.66.93.0                                                        07/20/2022  18:50:16  PAGE 28


      00FF0419H   LINE      CODE     ---       #335
      00FF0419H   LINE      CODE     ---       #337
      00FF0419H   LINE      CODE     ---       #339
      00FF041FH   LINE      CODE     ---       #341
      00FF0422H   LINE      CODE     ---       #343
      00FF0424H   LINE      CODE     ---       #344
      00FF042AH   LINE      CODE     ---       #345
      00FF042EH   LINE      CODE     ---       #346
      00FF0441H   LINE      CODE     ---       #347
      00FF044EH   LINE      CODE     ---       #348
      00FF045DH   LINE      CODE     ---       #349
      00FF0468H   LINE      CODE     ---       #350
      00FF046CH   LINE      CODE     ---       #351
      00FF046EH   LINE      CODE     ---       #352
      00FF0471H   LINE      CODE     ---       #353
      00FF0479H   LINE      CODE     ---       #354
      00FF047CH   LINE      CODE     ---       #355
      00FF047EH   LINE      CODE     ---       #356
      00FF0487H   LINE      CODE     ---       #358
      00FF048AH   LINE      CODE     ---       #360
      00FF048CH   LINE      CODE     ---       #361
      00FF048EH   LINE      CODE     ---       #362
      00FF0491H   LINE      CODE     ---       #363
      00FF049BH   LINE      CODE     ---       #364
      00FF049BH   LINE      CODE     ---       #365
      00FF049DH   LINE      CODE     ---       #367
      00FF04A0H   LINE      CODE     ---       #369
      00FF04A2H   LINE      CODE     ---       #370
      00FF04A5H   LINE      CODE     ---       #371
      00FF04AFH   LINE      CODE     ---       #373
      00FF04B1H   LINE      CODE     ---       #374
      00FF04BEH   LINE      CODE     ---       #375
      00FF04BEH   LINE      CODE     ---       #376
      00FF04BEH   LINE      CODE     ---       #377
      00FF04C0H   LINE      CODE     ---       #378
      00FF04C2H   LINE      CODE     ---       #380
      00FF04C8H   LINE      CODE     ---       #382
      00FF04CAH   LINE      CODE     ---       #384
      00FF04D0H   LINE      CODE     ---       #386
      00FF04E7H   LINE      CODE     ---       #387
      00FF04FDH   LINE      CODE     ---       #388
      00FF0513H   LINE      CODE     ---       #389
      00FF0519H   LINE      CODE     ---       #390
      00FF052FH   LINE      CODE     ---       #391
      00FF0545H   LINE      CODE     ---       #392
      00FF0550H   LINE      CODE     ---       #393
      00FF0556H   LINE      CODE     ---       #394
      00FF055CH   LINE      CODE     ---       #395
      00FF0562H   LINE      CODE     ---       #396
      00FF0566H   LINE      CODE     ---       #398
      00FF056EH   LINE      CODE     ---       #399
      00FF0574H   LINE      CODE     ---       #400
      00FF057BH   LINE      CODE     ---       #401
      00FF0583H   LINE      CODE     ---       #402
      00FF05A4H   LINE      CODE     ---       #403
      00FF05AAH   LINE      CODE     ---       #404
      00FF05AAH   LINE      CODE     ---       #407
      00FF05B5H   LINE      CODE     ---       #409
      00FF05BAH   LINE      CODE     ---       #411
      00FF05BDH   LINE      CODE     ---       #413
      00FF05CCH   LINE      CODE     ---       #414
      00FF05CFH   LINE      CODE     ---       #415
      00FF05D1H   LINE      CODE     ---       #416
      00FF05D3H   LINE      CODE     ---       #417
      00FF05D6H   LINE      CODE     ---       #418
L251 LINKER/LOCATER V4.66.93.0                                                        07/20/2022  18:50:16  PAGE 29


      00FF05E9H   LINE      CODE     ---       #419
      00FF05FCH   LINE      CODE     ---       #420
      00FF05FEH   LINE      CODE     ---       #421
      00FF0604H   LINE      CODE     ---       #422
      00FF0607H   LINE      CODE     ---       #425
      00FF060FH   LINE      CODE     ---       #426
      00FF061EH   LINE      CODE     ---       #427
      00FF0620H   LINE      CODE     ---       #428
      00FF0620H   LINE      CODE     ---       #429
      00FF0623H   LINE      CODE     ---       #431
      00FF0628H   LINE      CODE     ---       #433
      00FF062AH   LINE      CODE     ---       #434
      00FF062DH   LINE      CODE     ---       #435
      00FF0630H   LINE      CODE     ---       #437
      00FF0635H   LINE      CODE     ---       #439
      00FF063BH   LINE      CODE     ---       #441
      00FF063DH   LINE      CODE     ---       #442
      00FF0640H   LINE      CODE     ---       #443
      00FF0640H   LINE      CODE     ---       #444
      00FF0640H   LINE      CODE     ---       #445
      00FF0643H   LINE      CODE     ---       #448
      00FF064BH   LINE      CODE     ---       #450
      00FF064EH   LINE      CODE     ---       #452
      00FF0662H   LINE      CODE     ---       #453
      00FF0665H   LINE      CODE     ---       #454
      00FF0665H   LINE      CODE     ---       #455
      00FF0665H   LINE      CODE     ---       #456
      00FF0668H   LINE      CODE     ---       #457
      00FF0674H   LINE      CODE     ---       #459
      00FF0677H   LINE      CODE     ---       #461
      00FF067EH   LINE      CODE     ---       #462
      00FF067EH   LINE      CODE     ---       #463
      00FF067EH   LINE      CODE     ---       #464
      00FF0681H   LINE      CODE     ---       #465
      00FF068CH   LINE      CODE     ---       #467
      00FF0693H   LINE      CODE     ---       #468
      00FF069AH   LINE      CODE     ---       #469
      00FF06AAH   LINE      CODE     ---       #470
      00FF06D6H   LINE      CODE     ---       #471
      00FF06E2H   LINE      CODE     ---       #472
      00FF06EDH   LINE      CODE     ---       #473
      00FF06EDH   LINE      CODE     ---       #474
      00FF06EDH   LINE      CODE     ---       #475
      00FF06EDH   LINE      CODE     ---       #476
      00FF06EDH   LINE      CODE     ---       #477
      00FF06EDH   LINE      CODE     ---       #479
      00FF06F0H   LINE      CODE     ---       #481
      00FF06F8H   LINE      CODE     ---       #483
      00FF06FBH   LINE      CODE     ---       #485
      00FF070EH   LINE      CODE     ---       #486
      00FF0711H   LINE      CODE     ---       #487
      00FF0711H   LINE      CODE     ---       #488
      00FF0711H   LINE      CODE     ---       #489
      00FF0713H   LINE      CODE     ---       #490
      00FF071FH   LINE      CODE     ---       #492
      00FF0722H   LINE      CODE     ---       #494
      00FF0729H   LINE      CODE     ---       #495
      00FF072BH   LINE      CODE     ---       #496
      00FF072BH   LINE      CODE     ---       #497
      00FF072EH   LINE      CODE     ---       #498
      00FF073AH   LINE      CODE     ---       #500
      00FF0741H   LINE      CODE     ---       #501
      00FF0748H   LINE      CODE     ---       #502
      00FF0758H   LINE      CODE     ---       #503
      00FF0784H   LINE      CODE     ---       #504
L251 LINKER/LOCATER V4.66.93.0                                                        07/20/2022  18:50:16  PAGE 30


      00FF0790H   LINE      CODE     ---       #505
      00FF0793H   LINE      CODE     ---       #506
      00FF0796H   LINE      CODE     ---       #507
      00FF0799H   LINE      CODE     ---       #508
      00FF0799H   LINE      CODE     ---       #509
      00FF0799H   LINE      CODE     ---       #511
      00FF079CH   LINE      CODE     ---       #513
      00FF07A4H   LINE      CODE     ---       #515
      00FF07A7H   LINE      CODE     ---       #517
      00FF07AAH   LINE      CODE     ---       #519
      00FF07ADH   LINE      CODE     ---       #521
      00FF07B8H   LINE      CODE     ---       #522
      00FF07BAH   LINE      CODE     ---       #523
      00FF07C5H   LINE      CODE     ---       #524
      00FF07D4H   LINE      CODE     ---       #525
      00FF07D4H   LINE      CODE     ---       #526
      00FF07D7H   LINE      CODE     ---       #527
      00FF07E0H   LINE      CODE     ---       #529
      00FF07E5H   LINE      CODE     ---       #530
      00FF07E8H   LINE      CODE     ---       #531
      00FF07E8H   LINE      CODE     ---       #532
      00FF07EBH   LINE      CODE     ---       #536
      00FF07F6H   LINE      CODE     ---       #537
      00FF0802H   LINE      CODE     ---       #538
      00FF082EH   LINE      CODE     ---       #539
      00FF0837H   LINE      CODE     ---       #540
      00FF0849H   LINE      CODE     ---       #541
      00FF0856H   LINE      CODE     ---       #542
      00FF0856H   LINE      CODE     ---       #543
      00FF0856H   LINE      CODE     ---       #544
      00FF0856H   LINE      CODE     ---       #545
      00FF0859H   LINE      CODE     ---       #547
      00FF0861H   LINE      CODE     ---       #549
      00FF0864H   LINE      CODE     ---       #551
      00FF0867H   LINE      CODE     ---       #553
      00FF086AH   LINE      CODE     ---       #555
      00FF0875H   LINE      CODE     ---       #556
      00FF0877H   LINE      CODE     ---       #557
      00FF0885H   LINE      CODE     ---       #558
      00FF0894H   LINE      CODE     ---       #559
      00FF0894H   LINE      CODE     ---       #560
      00FF0896H   LINE      CODE     ---       #561
      00FF08A2H   LINE      CODE     ---       #563
      00FF08A7H   LINE      CODE     ---       #564
      00FF08AAH   LINE      CODE     ---       #565
      00FF08B0H   LINE      CODE     ---       #566
      00FF08B2H   LINE      CODE     ---       #570
      00FF08C1H   LINE      CODE     ---       #571
      00FF08D1H   LINE      CODE     ---       #572
      00FF08D7H   LINE      CODE     ---       #573
      00FF0903H   LINE      CODE     ---       #574
      00FF090CH   LINE      CODE     ---       #575
      00FF091EH   LINE      CODE     ---       #576
      00FF0928H   LINE      CODE     ---       #577
      00FF092BH   LINE      CODE     ---       #578
      00FF092EH   LINE      CODE     ---       #579
      00FF092EH   LINE      CODE     ---       #580
      00FF092EH   LINE      CODE     ---       #581
      00FF0933H   LINE      CODE     ---       #582
      ---         BLOCKEND  ---      ---       LVL=0

      00FF1BBFH   BLOCK     CODE     ---       LVL=0
      00FF1BBFH   LINE      CODE     ---       #589
      00FF1BC1H   LINE      CODE     ---       #591
      00FF1BCAH   LINE      CODE     ---       #592
L251 LINKER/LOCATER V4.66.93.0                                                        07/20/2022  18:50:16  PAGE 31


      00FF1BD2H   LINE      CODE     ---       #593
      00FF1BE9H   LINE      CODE     ---       #594
      00FF1C04H   LINE      CODE     ---       #595
      00FF1C1BH   LINE      CODE     ---       #596
      00FF1C2EH   LINE      CODE     ---       #597
      00FF1C49H   LINE      CODE     ---       #598
      00FF1C5CH   LINE      CODE     ---       #599
      00FF1C62H   LINE      CODE     ---       #600
      ---         BLOCKEND  ---      ---       LVL=0

      00FF1ECEH   BLOCK     CODE     ---       LVL=0
      00FF1ECEH   LINE      CODE     ---       #603
      00FF1ECEH   LINE      CODE     ---       #605
      00FF1ED1H   LINE      CODE     ---       #607
      00FF1ED9H   LINE      CODE     ---       #608
      00FF1EF0H   LINE      CODE     ---       #609
      00FF1F00H   LINE      CODE     ---       #610
      00FF1F02H   LINE      CODE     ---       #613
      00FF1F0AH   LINE      CODE     ---       #614
      00FF1F21H   LINE      CODE     ---       #615
      00FF1F34H   LINE      CODE     ---       #616
      00FF1F34H   LINE      CODE     ---       #617
      00FF1F3AH   LINE      CODE     ---       #618
      ---         BLOCKEND  ---      ---       LVL=0

      00FF20FAH   BLOCK     CODE     ---       LVL=0
      00FF20FAH   LINE      CODE     ---       #622
      00FF20FAH   LINE      CODE     ---       #624
      00FF20FDH   LINE      CODE     ---       #625
      00FF20FFH   LINE      CODE     ---       #626
      00FF2101H   LINE      CODE     ---       #627
      00FF2103H   LINE      CODE     ---       #628
      00FF2105H   LINE      CODE     ---       #629
      00FF2108H   LINE      CODE     ---       #630
      00FF210EH   LINE      CODE     ---       #631
      00FF2111H   LINE      CODE     ---       #633
      00FF211AH   LINE      CODE     ---       #635
      00FF2120H   LINE      CODE     ---       #636
      00FF2122H   LINE      CODE     ---       #637
      00FF2124H   LINE      CODE     ---       #638
      00FF2129H   LINE      CODE     ---       #640
      00FF212FH   LINE      CODE     ---       #641
      00FF2131H   LINE      CODE     ---       #642
      00FF2133H   LINE      CODE     ---       #643
      00FF2138H   LINE      CODE     ---       #645
      00FF213EH   LINE      CODE     ---       #646
      00FF2144H   LINE      CODE     ---       #647
      ---         BLOCKEND  ---      ---       LVL=0

      00FF0EF4H   BLOCK     CODE     ---       LVL=0
      00FF0EF6H   BLOCK     CODE     NEAR LAB  LVL=1
      WR6         REGSYM    ---      WORD      j
      R10         REGSYM    ---      BYTE      i
      R15         REGSYM    ---      BYTE      k
      ---         BLOCKEND  ---      ---       LVL=1
      00FF0EF4H   LINE      CODE     ---       #657
      00FF0EF6H   LINE      CODE     ---       #658
      00FF0EF6H   LINE      CODE     ---       #662
      00FF0F11H   LINE      CODE     ---       #663
      00FF0F23H   LINE      CODE     ---       #664
      00FF0F37H   LINE      CODE     ---       #665
      00FF0F4BH   LINE      CODE     ---       #666
      00FF0F5DH   LINE      CODE     ---       #667
      00FF0F69H   LINE      CODE     ---       #669
      00FF0F6EH   LINE      CODE     ---       #671
L251 LINKER/LOCATER V4.66.93.0                                                        07/20/2022  18:50:16  PAGE 32


      00FF0F76H   LINE      CODE     ---       #672
      00FF0F7CH   LINE      CODE     ---       #673
      00FF0F7EH   LINE      CODE     ---       #674
      00FF0F7EH   LINE      CODE     ---       #675
      00FF0F7EH   LINE      CODE     ---       #676
      00FF0F80H   LINE      CODE     ---       #677
      00FF0F85H   LINE      CODE     ---       #679
      00FF0F87H   LINE      CODE     ---       #680
      00FF0F87H   LINE      CODE     ---       #681
      00FF0F87H   LINE      CODE     ---       #682
      00FF0F87H   LINE      CODE     ---       #683
      00FF0F89H   LINE      CODE     ---       #684
      00FF0F8EH   LINE      CODE     ---       #686
      00FF0F94H   LINE      CODE     ---       #687
      00FF0F96H   LINE      CODE     ---       #688
      00FF0F96H   LINE      CODE     ---       #689
      00FF0F96H   LINE      CODE     ---       #690
      00FF0F98H   LINE      CODE     ---       #691
      00FF0F9DH   LINE      CODE     ---       #693
      00FF0FA5H   LINE      CODE     ---       #694
      00FF0FABH   LINE      CODE     ---       #695
      00FF0FB1H   LINE      CODE     ---       #696
      00FF0FB3H   LINE      CODE     ---       #697
      00FF0FB3H   LINE      CODE     ---       #698
      00FF0FB5H   LINE      CODE     ---       #699
      00FF0FBAH   LINE      CODE     ---       #701
      00FF0FC0H   LINE      CODE     ---       #702
      00FF0FC2H   LINE      CODE     ---       #703
      00FF0FC2H   LINE      CODE     ---       #704
      00FF0FC2H   LINE      CODE     ---       #705
      00FF0FC4H   LINE      CODE     ---       #706
      00FF0FC9H   LINE      CODE     ---       #708
      00FF0FCFH   LINE      CODE     ---       #709
      00FF0FD5H   LINE      CODE     ---       #710
      00FF0FDBH   LINE      CODE     ---       #711
      00FF0FDEH   LINE      CODE     ---       #712
      00FF0FE0H   LINE      CODE     ---       #713
      00FF0FE5H   LINE      CODE     ---       #715
      00FF0FEDH   LINE      CODE     ---       #716
      00FF0FF3H   LINE      CODE     ---       #717
      00FF0FF9H   LINE      CODE     ---       #718
      00FF0FFFH   LINE      CODE     ---       #719
      00FF1002H   LINE      CODE     ---       #720
      00FF1004H   LINE      CODE     ---       #723
      00FF100AH   LINE      CODE     ---       #724
      00FF1010H   LINE      CODE     ---       #725
      00FF1016H   LINE      CODE     ---       #726
      00FF1019H   LINE      CODE     ---       #727
      00FF1019H   LINE      CODE     ---       #728
      00FF101DH   LINE      CODE     ---       #730
      00FF1026H   LINE      CODE     ---       #731
      00FF102EH   LINE      CODE     ---       #732
      00FF1034H   LINE      CODE     ---       #733
      00FF1039H   LINE      CODE     ---       #735
      00FF1048H   LINE      CODE     ---       #736
      ---         BLOCKEND  ---      ---       LVL=0

      00FF1B15H   BLOCK     CODE     ---       LVL=0
      00FF1B17H   BLOCK     CODE     NEAR LAB  LVL=1
      WR14        REGSYM    ---      WORD      y
      ---         BLOCKEND  ---      ---       LVL=1
      00FF1B15H   LINE      CODE     ---       #746
      00FF1B17H   LINE      CODE     ---       #747
      00FF1B17H   LINE      CODE     ---       #749
      00FF1B1AH   LINE      CODE     ---       #750
L251 LINKER/LOCATER V4.66.93.0                                                        07/20/2022  18:50:16  PAGE 33


      00FF1B35H   LINE      CODE     ---       #752
      00FF1B56H   LINE      CODE     ---       #754
      00FF1B59H   LINE      CODE     ---       #755
      00FF1B5BH   LINE      CODE     ---       #757
      00FF1B78H   LINE      CODE     ---       #758
      00FF1B82H   LINE      CODE     ---       #759
      00FF1B86H   LINE      CODE     ---       #761
      00FF1B95H   LINE      CODE     ---       #762
      00FF1BB2H   LINE      CODE     ---       #763
      00FF1BBCH   LINE      CODE     ---       #764
      ---         BLOCKEND  ---      ---       LVL=0

      00FF0BA9H   BLOCK     CODE     ---       LVL=0
      00FF0BABH   BLOCK     CODE     NEAR LAB  LVL=1
      WR14        REGSYM    ---      WORD      x
      WR12        REGSYM    ---      WORD      y
      00000008H   SYMBOL    EDATA    WORD      j
      0000000AH   SYMBOL    EDATA    BYTE      i
      ---         BLOCKEND  ---      ---       LVL=1
      00FF0BA9H   LINE      CODE     ---       #778
      00FF0BABH   LINE      CODE     ---       #779
      00FF0BABH   LINE      CODE     ---       #783
      00FF0BB7H   LINE      CODE     ---       #785
      00FF0BBFH   LINE      CODE     ---       #786
      00FF0BCDH   LINE      CODE     ---       #787
      00FF0BDFH   LINE      CODE     ---       #789
      00FF0BF4H   LINE      CODE     ---       #790
      00FF0BFFH   LINE      CODE     ---       #791
      00FF0C07H   LINE      CODE     ---       #792
      00FF0C0DH   LINE      CODE     ---       #793
      00FF0C0FH   LINE      CODE     ---       #794
      00FF0C24H   LINE      CODE     ---       #795
      00FF0C2FH   LINE      CODE     ---       #796
      00FF0C37H   LINE      CODE     ---       #797
      00FF0C3FH   LINE      CODE     ---       #798
      00FF0C47H   LINE      CODE     ---       #799
      00FF0C49H   LINE      CODE     ---       #802
      00FF0C5BH   LINE      CODE     ---       #803
      00FF0C69H   LINE      CODE     ---       #804
      00FF0C77H   LINE      CODE     ---       #806
      00FF0C8AH   LINE      CODE     ---       #807
      00FF0C95H   LINE      CODE     ---       #808
      00FF0C9DH   LINE      CODE     ---       #809
      00FF0CA7H   LINE      CODE     ---       #810
      00FF0CAFH   LINE      CODE     ---       #811
      00FF0CAFH   LINE      CODE     ---       #813
      00FF0CB2H   LINE      CODE     ---       #814
      00FF0CC0H   LINE      CODE     ---       #815
      00FF0CC2H   LINE      CODE     ---       #817
      00FF0CEDH   LINE      CODE     ---       #818
      00FF0D0CH   LINE      CODE     ---       #819
      00FF0D1FH   LINE      CODE     ---       #821
      00FF0D29H   LINE      CODE     ---       #822
      00FF0D42H   LINE      CODE     ---       #823
      00FF0D5AH   LINE      CODE     ---       #824
      00FF0D73H   LINE      CODE     ---       #825
      00FF0D77H   LINE      CODE     ---       #826
      00FF0D82H   LINE      CODE     ---       #827
      00FF0D91H   LINE      CODE     ---       #829
      00FF0D94H   LINE      CODE     ---       #830
      ---         BLOCKEND  ---      ---       LVL=0

      00FF1153H   BLOCK     CODE     ---       LVL=0
      00FF1155H   BLOCK     CODE     NEAR LAB  LVL=1
      WR14        REGSYM    ---      WORD      x
L251 LINKER/LOCATER V4.66.93.0                                                        07/20/2022  18:50:16  PAGE 34


      WR12        REGSYM    ---      WORD      y
      R5          REGSYM    ---      BYTE      i
      ---         BLOCKEND  ---      ---       LVL=1
      00FF1153H   LINE      CODE     ---       #834
      00FF1155H   LINE      CODE     ---       #835
      00FF1155H   LINE      CODE     ---       #839
      00FF1161H   LINE      CODE     ---       #840
      00FF116AH   LINE      CODE     ---       #842
      00FF116DH   LINE      CODE     ---       #843
      00FF1198H   LINE      CODE     ---       #844
      00FF11B7H   LINE      CODE     ---       #845
      00FF11CAH   LINE      CODE     ---       #847
      00FF11DDH   LINE      CODE     ---       #848
      00FF11E5H   LINE      CODE     ---       #849
      00FF11EBH   LINE      CODE     ---       #850
      00FF11F3H   LINE      CODE     ---       #851
      00FF120CH   LINE      CODE     ---       #852
      00FF1224H   LINE      CODE     ---       #853
      00FF123DH   LINE      CODE     ---       #854
      00FF1241H   LINE      CODE     ---       #855
      00FF124DH   LINE      CODE     ---       #856
      00FF1250H   LINE      CODE     ---       #857
      ---         BLOCKEND  ---      ---       LVL=0

      00FF2456H   BLOCK     CODE     ---       LVL=0
      00FF2456H   LINE      CODE     ---       #873
      00FF2456H   LINE      CODE     ---       #875
      00FF245CH   LINE      CODE     ---       #876
      00FF245FH   LINE      CODE     ---       #877
      00FF2462H   LINE      CODE     ---       #878
      00FF2465H   LINE      CODE     ---       #879
      00FF2472H   LINE      CODE     ---       #880
      ---         BLOCKEND  ---      ---       LVL=0

      00FF23F5H   BLOCK     CODE     ---       LVL=0
      00FF23F5H   LINE      CODE     ---       #890
      00FF23F5H   LINE      CODE     ---       #892
      00FF23F8H   LINE      CODE     ---       #893
      00FF23FBH   LINE      CODE     ---       #895
      00FF23FEH   LINE      CODE     ---       #896
      00FF2401H   LINE      CODE     ---       #897
      00FF2404H   LINE      CODE     ---       #899
      00FF2410H   LINE      CODE     ---       #900
      00FF2413H   LINE      CODE     ---       #901
      00FF2416H   LINE      CODE     ---       #902
      ---         BLOCKEND  ---      ---       LVL=0

      00FF2210H   BLOCK     CODE     ---       LVL=0
      00FF2210H   LINE      CODE     ---       #905
      00FF2210H   LINE      CODE     ---       #907
      00FF2213H   LINE      CODE     ---       #908
      00FF2216H   LINE      CODE     ---       #909
      00FF2219H   LINE      CODE     ---       #910
      00FF221DH   LINE      CODE     ---       #911
      00FF2221H   LINE      CODE     ---       #912
      00FF2225H   LINE      CODE     ---       #913
      00FF2228H   LINE      CODE     ---       #914
      00FF222BH   LINE      CODE     ---       #915
      00FF222FH   LINE      CODE     ---       #916
      00FF2233H   LINE      CODE     ---       #918
      00FF2236H   LINE      CODE     ---       #920
      00FF223CH   LINE      CODE     ---       #921
      00FF2242H   LINE      CODE     ---       #922
      00FF2245H   LINE      CODE     ---       #923
      00FF2248H   LINE      CODE     ---       #925
L251 LINKER/LOCATER V4.66.93.0                                                        07/20/2022  18:50:16  PAGE 35


      00FF224BH   LINE      CODE     ---       #928
      ---         BLOCKEND  ---      ---       LVL=0

      00FF23D2H   BLOCK     CODE     ---       LVL=0
      00FF23D2H   LINE      CODE     ---       #931
      00FF23D6H   LINE      CODE     ---       #933
      00FF23D9H   LINE      CODE     ---       #935
      00FF23DCH   LINE      CODE     ---       #936
      00FF23DEH   LINE      CODE     ---       #938
      00FF23E3H   LINE      CODE     ---       #939
      00FF23E9H   LINE      CODE     ---       #940
      00FF23EDH   LINE      CODE     ---       #942
      00FF23F0H   LINE      CODE     ---       #943
      ---         BLOCKEND  ---      ---       LVL=0

      00FF2438H   BLOCK     CODE     ---       LVL=0
      00FF2438H   LINE      CODE     ---       #946
      00FF2438H   LINE      CODE     ---       #948
      00FF243AH   LINE      CODE     ---       #949
      00FF243DH   LINE      CODE     ---       #950
      00FF2445H   LINE      CODE     ---       #951
      00FF2448H   LINE      CODE     ---       #952
      00FF244EH   LINE      CODE     ---       #953
      00FF2451H   LINE      CODE     ---       #954
      00FF2453H   LINE      CODE     ---       #955
      00FF2455H   LINE      CODE     ---       #956
      ---         BLOCKEND  ---      ---       LVL=0

      00FF24F3H   BLOCK     CODE     ---       LVL=0
      00FF24F3H   LINE      CODE     ---       #965
      00FF24F5H   LINE      CODE     ---       #967
      00FF24FEH   LINE      CODE     ---       #968
      ---         BLOCKEND  ---      ---       LVL=0

      00FF224CH   BLOCK     CODE     ---       LVL=0
      00FF224CH   LINE      CODE     ---       #971
      00FF2252H   LINE      CODE     ---       #973
      00FF2270H   LINE      CODE     ---       #974
      00FF227BH   LINE      CODE     ---       #975
      00FF227DH   LINE      CODE     ---       #976
      ---         BLOCKEND  ---      ---       LVL=0

      00FF1350H   BLOCK     CODE     ---       LVL=0
      00FF1352H   BLOCK     CODE     NEAR LAB  LVL=1
      ---         BLOCKEND  ---      ---       LVL=1
      00FF1350H   LINE      CODE     ---       #986
      00FF1352H   LINE      CODE     ---       #987
      00FF1352H   LINE      CODE     ---       #994
      00FF1355H   LINE      CODE     ---       #995
      00FF1361H   LINE      CODE     ---       #996
      00FF136CH   LINE      CODE     ---       #997
      00FF1379H   LINE      CODE     ---       #998
      00FF1380H   LINE      CODE     ---       #999
      00FF1380H   LINE      CODE     ---       #1000
      00FF1380H   LINE      CODE     ---       #1001
      00FF1380H   LINE      CODE     ---       #1002
      00FF1380H   LINE      CODE     ---       #1003
      00FF1380H   LINE      CODE     ---       #1005
      00FF1387H   LINE      CODE     ---       #1006
      00FF138EH   LINE      CODE     ---       #1007
      00FF1398H   LINE      CODE     ---       #1009
      00FF13A2H   LINE      CODE     ---       #1010
      00FF13ABH   LINE      CODE     ---       #1012
      00FF13B5H   LINE      CODE     ---       #1013
      00FF13BEH   LINE      CODE     ---       #1014
L251 LINKER/LOCATER V4.66.93.0                                                        07/20/2022  18:50:16  PAGE 36


      00FF13C8H   LINE      CODE     ---       #1015
      00FF13C8H   LINE      CODE     ---       #1016
      00FF13C8H   LINE      CODE     ---       #1017
      00FF13C8H   LINE      CODE     ---       #1020
      00FF13D2H   LINE      CODE     ---       #1021
      00FF13DBH   LINE      CODE     ---       #1022
      00FF13E5H   LINE      CODE     ---       #1023
      00FF13E5H   LINE      CODE     ---       #1024
      00FF13E5H   LINE      CODE     ---       #1025
      00FF13E5H   LINE      CODE     ---       #1028
      00FF13EFH   LINE      CODE     ---       #1029
      00FF13F8H   LINE      CODE     ---       #1030
      00FF1402H   LINE      CODE     ---       #1031
      00FF1402H   LINE      CODE     ---       #1032
      00FF1402H   LINE      CODE     ---       #1033
      00FF1402H   LINE      CODE     ---       #1036
      00FF140CH   LINE      CODE     ---       #1037
      00FF1416H   LINE      CODE     ---       #1038
      00FF141FH   LINE      CODE     ---       #1039
      00FF1423H   LINE      CODE     ---       #1041
      00FF142CH   LINE      CODE     ---       #1042
      00FF1435H   LINE      CODE     ---       #1043
      00FF143EH   LINE      CODE     ---       #1044
      00FF1443H   LINE      CODE     ---       #1046
      00FF1449H   LINE      CODE     ---       #1047
      ---         BLOCKEND  ---      ---       LVL=0

      00FF184CH   BLOCK     CODE     ---       LVL=0
      00FF184EH   BLOCK     CODE     NEAR LAB  LVL=1
      ---         BLOCKEND  ---      ---       LVL=1
      00FF184CH   LINE      CODE     ---       #1062
      00FF184EH   LINE      CODE     ---       #1063
      00FF184EH   LINE      CODE     ---       #1070
      00FF1851H   LINE      CODE     ---       #1071
      00FF185DH   LINE      CODE     ---       #1072
      00FF1868H   LINE      CODE     ---       #1073
      00FF1875H   LINE      CODE     ---       #1074
      00FF187CH   LINE      CODE     ---       #1075
      00FF187CH   LINE      CODE     ---       #1076
      00FF187CH   LINE      CODE     ---       #1077
      00FF187CH   LINE      CODE     ---       #1078
      00FF187CH   LINE      CODE     ---       #1079
      00FF187CH   LINE      CODE     ---       #1081
      00FF1886H   LINE      CODE     ---       #1082
      00FF1890H   LINE      CODE     ---       #1083
      00FF189AH   LINE      CODE     ---       #1084
      00FF18A4H   LINE      CODE     ---       #1086
      00FF18AEH   LINE      CODE     ---       #1087
      00FF18B8H   LINE      CODE     ---       #1088
      00FF18C2H   LINE      CODE     ---       #1089
      00FF18C2H   LINE      CODE     ---       #1090
      00FF18C2H   LINE      CODE     ---       #1091
      00FF18C2H   LINE      CODE     ---       #1094
      00FF18CBH   LINE      CODE     ---       #1095
      00FF18D5H   LINE      CODE     ---       #1096
      00FF18DFH   LINE      CODE     ---       #1097
      00FF18E3H   LINE      CODE     ---       #1099
      00FF18ECH   LINE      CODE     ---       #1100
      00FF18F5H   LINE      CODE     ---       #1101
      00FF18FEH   LINE      CODE     ---       #1102
      00FF1903H   LINE      CODE     ---       #1103
      00FF1909H   LINE      CODE     ---       #1104
      ---         BLOCKEND  ---      ---       LVL=0

      00FF009EH   BLOCK     CODE     ---       LVL=0
L251 LINKER/LOCATER V4.66.93.0                                                        07/20/2022  18:50:16  PAGE 37


      00FF009EH   LINE      CODE     ---       #1120
      00FF009EH   LINE      CODE     ---       #1122
      00FF00A0H   LINE      CODE     ---       #1123
      00FF00A2H   LINE      CODE     ---       #1124
      00FF00A4H   LINE      CODE     ---       #1125
      00FF00A7H   LINE      CODE     ---       #1127
      00FF00AAH   LINE      CODE     ---       #1129
      ---         BLOCKEND  ---      ---       LVL=0

      00FF1C65H   BLOCK     CODE     ---       LVL=0
      00FF1C65H   LINE      CODE     ---       #1132
      00FF1C6FH   LINE      CODE     ---       #1134
      00FF1C77H   LINE      CODE     ---       #1135
      00FF1C7AH   LINE      CODE     ---       #1137
      00FF1C7DH   LINE      CODE     ---       #1139
      00FF1C80H   LINE      CODE     ---       #1141
      00FF1C95H   LINE      CODE     ---       #1142
      00FF1CA1H   LINE      CODE     ---       #1143
      00FF1CA3H   LINE      CODE     ---       #1145
      00FF1CAFH   LINE      CODE     ---       #1147
      00FF1CB7H   LINE      CODE     ---       #1148
      00FF1CCCH   LINE      CODE     ---       #1149
      00FF1CDAH   LINE      CODE     ---       #1150
      00FF1CEAH   LINE      CODE     ---       #1151
      00FF1CEAH   LINE      CODE     ---       #1152
      ---         BLOCKEND  ---      ---       LVL=0

      00FF23AEH   BLOCK     CODE     ---       LVL=0
      00FF23AEH   LINE      CODE     ---       #1155
      00FF23AEH   LINE      CODE     ---       #1157
      00FF23B4H   LINE      CODE     ---       #1159
      00FF23BBH   LINE      CODE     ---       #1161
      00FF23BDH   LINE      CODE     ---       #1162
      00FF23BFH   LINE      CODE     ---       #1163
      00FF23C2H   LINE      CODE     ---       #1164
      00FF23C4H   LINE      CODE     ---       #1166
      00FF23C7H   LINE      CODE     ---       #1167
      00FF23CDH   LINE      CODE     ---       #1168
      00FF23D1H   LINE      CODE     ---       #1169
      00FF23D1H   LINE      CODE     ---       #1171
      ---         BLOCKEND  ---      ---       LVL=0

      00FF144CH   BLOCK     CODE     ---       LVL=0
      00FF144EH   BLOCK     CODE     NEAR LAB  LVL=1
      WR14        REGSYM    ---      WORD      j
      ---         BLOCKEND  ---      ---       LVL=1
      00FF144CH   LINE      CODE     ---       #1185
      00FF144EH   LINE      CODE     ---       #1186
      00FF144EH   LINE      CODE     ---       #1189
      00FF145CH   LINE      CODE     ---       #1190
      00FF1466H   LINE      CODE     ---       #1191
      00FF1470H   LINE      CODE     ---       #1192
      00FF1473H   LINE      CODE     ---       #1194
      00FF147CH   LINE      CODE     ---       #1195
      00FF1485H   LINE      CODE     ---       #1196
      00FF148EH   LINE      CODE     ---       #1197
      00FF1497H   LINE      CODE     ---       #1198
      00FF14A0H   LINE      CODE     ---       #1199
      00FF14A6H   LINE      CODE     ---       #1201
      00FF14B4H   LINE      CODE     ---       #1203
      00FF14B9H   LINE      CODE     ---       #1205
      00FF14CAH   LINE      CODE     ---       #1206
      00FF14CCH   LINE      CODE     ---       #1207
      00FF14CEH   LINE      CODE     ---       #1208
      00FF14CEH   LINE      CODE     ---       #1209
L251 LINKER/LOCATER V4.66.93.0                                                        07/20/2022  18:50:16  PAGE 38


      00FF14CEH   LINE      CODE     ---       #1210
      00FF14D0H   LINE      CODE     ---       #1212
      00FF14D5H   LINE      CODE     ---       #1214
      00FF14E6H   LINE      CODE     ---       #1215
      00FF14E8H   LINE      CODE     ---       #1216
      00FF14F0H   LINE      CODE     ---       #1217
      00FF14F4H   LINE      CODE     ---       #1218
      00FF14F6H   LINE      CODE     ---       #1219
      00FF150AH   LINE      CODE     ---       #1220
      00FF1510H   LINE      CODE     ---       #1221
      00FF1512H   LINE      CODE     ---       #1225
      00FF1523H   LINE      CODE     ---       #1226
      00FF1525H   LINE      CODE     ---       #1227
      00FF1529H   LINE      CODE     ---       #1228
      00FF152DH   LINE      CODE     ---       #1229
      00FF152FH   LINE      CODE     ---       #1230
      00FF1532H   LINE      CODE     ---       #1231
      00FF1535H   LINE      CODE     ---       #1232
      00FF1535H   LINE      CODE     ---       #1233
      00FF1538H   LINE      CODE     ---       #1234
      ---         BLOCKEND  ---      ---       LVL=0

      00FF190CH   BLOCK     CODE     ---       LVL=0
      00FF190EH   BLOCK     CODE     NEAR LAB  LVL=1
      WR6         REGSYM    ---      WORD      j
      R15         REGSYM    ---      BYTE      k
      ---         BLOCKEND  ---      ---       LVL=1
      00FF190CH   LINE      CODE     ---       #1237
      00FF190EH   LINE      CODE     ---       #1238
      00FF190EH   LINE      CODE     ---       #1241
      00FF1923H   LINE      CODE     ---       #1242
      00FF1937H   LINE      CODE     ---       #1243
      00FF1947H   LINE      CODE     ---       #1244
      00FF1953H   LINE      CODE     ---       #1245
      00FF1959H   LINE      CODE     ---       #1246
      00FF1960H   LINE      CODE     ---       #1248
      00FF1966H   LINE      CODE     ---       #1249
      00FF1973H   LINE      CODE     ---       #1250
      00FF1973H   LINE      CODE     ---       #1251
      00FF197CH   LINE      CODE     ---       #1252
      00FF1985H   LINE      CODE     ---       #1253
      00FF198BH   LINE      CODE     ---       #1255
      00FF1993H   LINE      CODE     ---       #1256
      00FF19B2H   LINE      CODE     ---       #1257
      00FF19B8H   LINE      CODE     ---       #1258
      ---         BLOCKEND  ---      ---       LVL=0

      00FF1FFFH   BLOCK     CODE     ---       LVL=0
      R11         REGSYM    ---      BYTE      i
      00FF1FFFH   LINE      CODE     ---       #1268
      00FF1FFFH   LINE      CODE     ---       #1269
      00FF1FFFH   LINE      CODE     ---       #1271
      00FF2007H   LINE      CODE     ---       #1272
      00FF2023H   LINE      CODE     ---       #1273
      00FF2029H   LINE      CODE     ---       #1275
      00FF203AH   LINE      CODE     ---       #1276
      00FF2043H   LINE      CODE     ---       #1277
      00FF204CH   LINE      CODE     ---       #1278
      00FF2054H   LINE      CODE     ---       #1279
      ---         BLOCKEND  ---      ---       LVL=0

      00FF2284H   BLOCK     CODE     ---       LVL=0
      00FF2284H   LINE      CODE     ---       #1282
      00FF2284H   LINE      CODE     ---       #1284
      00FF228CH   LINE      CODE     ---       #1285
L251 LINKER/LOCATER V4.66.93.0                                                        07/20/2022  18:50:16  PAGE 39


      00FF22A1H   LINE      CODE     ---       #1286
      00FF22B4H   LINE      CODE     ---       #1287
      00FF22BAH   LINE      CODE     ---       #1288
      ---         BLOCKEND  ---      ---       LVL=0

      00FF1253H   BLOCK     CODE     ---       LVL=0
      R10         REGSYM    ---      BYTE      i
      R6          REGSYM    ---      BYTE      j
      00FF1253H   LINE      CODE     ---       #1292
      00FF1253H   LINE      CODE     ---       #1293
      00FF1253H   LINE      CODE     ---       #1295
      00FF1255H   LINE      CODE     ---       #1296
      00FF1259H   LINE      CODE     ---       #1297
      00FF125EH   LINE      CODE     ---       #1298
      00FF1267H   LINE      CODE     ---       #1299
      00FF1274H   LINE      CODE     ---       #1300
      00FF1281H   LINE      CODE     ---       #1301
      00FF128EH   LINE      CODE     ---       #1302
      00FF129BH   LINE      CODE     ---       #1304
      00FF12A1H   LINE      CODE     ---       #1306
      00FF12A3H   LINE      CODE     ---       #1307
      00FF12ADH   LINE      CODE     ---       #1308
      00FF12BAH   LINE      CODE     ---       #1309
      00FF12C7H   LINE      CODE     ---       #1310
      00FF12C9H   LINE      CODE     ---       #1311
      00FF12C9H   LINE      CODE     ---       #1313
      00FF12D5H   LINE      CODE     ---       #1315
      00FF12DBH   LINE      CODE     ---       #1317
      00FF12E9H   LINE      CODE     ---       #1319
      00FF12EFH   LINE      CODE     ---       #1320
      00FF12F1H   LINE      CODE     ---       #1321
      00FF12F3H   LINE      CODE     ---       #1322
      00FF12F3H   LINE      CODE     ---       #1325
      00FF12F7H   LINE      CODE     ---       #1327
      00FF1302H   LINE      CODE     ---       #1328
      00FF130DH   LINE      CODE     ---       #1329
      00FF1318H   LINE      CODE     ---       #1330
      00FF1323H   LINE      CODE     ---       #1331
      00FF132EH   LINE      CODE     ---       #1332
      00FF1339H   LINE      CODE     ---       #1333
      00FF1344H   LINE      CODE     ---       #1334
      00FF1344H   LINE      CODE     ---       #1336
      00FF134FH   LINE      CODE     ---       #1337
      ---         BLOCKEND  ---      ---       LVL=0

      00FF1F3BH   BLOCK     CODE     ---       LVL=0
      R7          REGSYM    ---      BYTE      t
      DR28        REGSYM    ---      DWORD     reload
      00FF1F3BH   LINE      CODE     ---       #1349
      00FF1F3FH   LINE      CODE     ---       #1351
      00FF1F42H   LINE      CODE     ---       #1352
      00FF1F45H   LINE      CODE     ---       #1354
      00FF1F6AH   LINE      CODE     ---       #1355
      00FF1F77H   LINE      CODE     ---       #1356
      00FF1F86H   LINE      CODE     ---       #1357
      00FF1F91H   LINE      CODE     ---       #1358
      00FF1F95H   LINE      CODE     ---       #1359
      00FF1F99H   LINE      CODE     ---       #1360
      00FF1F9DH   LINE      CODE     ---       #1363
      00FF1FA0H   LINE      CODE     ---       #1364
      00FF1FA3H   LINE      CODE     ---       #1365
      00FF1FA4H   LINE      CODE     ---       #1366
      ---         BLOCKEND  ---      ---       LVL=0

      00FF1FA5H   BLOCK     CODE     ---       LVL=0
L251 LINKER/LOCATER V4.66.93.0                                                        07/20/2022  18:50:16  PAGE 40


      00FF1FA5H   LINE      CODE     ---       #1377
      00FF1FA9H   LINE      CODE     ---       #1379
      00FF1FC7H   LINE      CODE     ---       #1380
      00FF1FD4H   LINE      CODE     ---       #1382
      00FF1FE0H   LINE      CODE     ---       #1384
      00FF1FE5H   LINE      CODE     ---       #1385
      00FF1FE7H   LINE      CODE     ---       #1386
      00FF1FE7H   LINE      CODE     ---       #1387
      00FF1FF3H   LINE      CODE     ---       #1389
      00FF1FF8H   LINE      CODE     ---       #1390
      00FF1FFAH   LINE      CODE     ---       #1391
      ---         BLOCKEND  ---      ---       LVL=0

      ---         MODULE    ---      ---       ?C?FPMUL
      00FF0936H   PUBLIC    CODE     ---       ?C?FPMUL

      ---         MODULE    ---      ---       ?C?FPDIV
      00FF09D6H   PUBLIC    CODE     ---       ?C?FPDIV

      ---         MODULE    ---      ---       ?C?FCAST
      00FF0A61H   PUBLIC    CODE     NEAR LAB  ?C?FCASTC
      00FF0A5CH   PUBLIC    CODE     NEAR LAB  ?C?FCASTI
      00FF0A57H   PUBLIC    CODE     NEAR LAB  ?C?FCASTL

      ---         MODULE    ---      ---       ?C?CASTF
      00FF0A94H   PUBLIC    CODE     NEAR LAB  ?C?CASTF

      ---         MODULE    ---      ---       ?C?FPGETOPN
      00FF0AD1H   PUBLIC    CODE     ---       ?C?FPGETOPN2
      00FF0B0EH   PUBLIC    CODE     ---       ?C?FPNANRESULT
      00FF0B16H   PUBLIC    CODE     ---       ?C?FPOVERFLOW
      00FF0AEAH   PUBLIC    CODE     ---       ?C?FPRESULT
      00FF0B00H   PUBLIC    CODE     ---       ?C?FPRESULT2
      00FF0B13H   PUBLIC    CODE     ---       ?C?FPUNDERFLOW

      ---         MODULE    ---      ---       ?C_START
      00FF0000H   PUBLIC    CODE     ---       ?C?STARTUP
      00FF0000H   PUBLIC    CODE     ---       ?C_STARTUP

      ---         MODULE    ---      ---       ?C?INITEDATA
      00FF21E4H   PUBLIC    CODE     ---       ?C?INITEDATA

      ---         MODULE    ---      ---       ?C?ULDIV
      00FF0B24H   PUBLIC    CODE     NEAR LAB  ?C?ULDIV
      00FF0B22H   PUBLIC    CODE     NEAR LAB  ?C?ULIDIV

      ---         MODULE    ---      ---       ?C?SLDIV
      00FF0B75H   PUBLIC    CODE     NEAR LAB  ?C?SLDIV

      ---         MODULE    ---      ---       ?C?INITEDATA_END
      00FF37A9H   PUBLIC    HCONST   WORD      ?C?INITEDATA_END

Program Size: data=9.4 edata+hdata=1190 xdata=4520 const=4778 code=9445
L251 RUN COMPLETE.  0 WARNING(S),  0 ERROR(S)
